                              1 ;--------------------------------------------------------
                              2 ; File Created by SDCC : free open source ANSI-C Compiler
                              3 ; Version 4.0.0 #11528 (MINGW32)
                              4 ;--------------------------------------------------------
                              5 	.module SpriteArrow
                              6 	.optsdcc -mgbz80
                              7 	
                              8 ;--------------------------------------------------------
                              9 ; Public variables in this module
                             10 ;--------------------------------------------------------
                             11 	.globl _Destroy_SpriteArrow
                             12 	.globl _Update_SpriteArrow
                             13 	.globl _Start_SpriteArrow
                             14 	.globl _SpriteManagerRemove
                             15 	.globl _CheckCollision
                             16 	.globl _TranslateSprite
                             17 	.globl _SetSpriteAnim
                             18 	.globl _empty
                             19 	.globl _bank_SpriteArrow
                             20 	.globl _internal_t
                             21 	.globl _tile_a_collision
                             22 	.globl _attack_wait
                             23 	.globl _damage_cooldown
                             24 	.globl _spine
                             25 	.globl _arrow_fire_g
                             26 	.globl _arrow_blast_g
                             27 	.globl _arrow_stone_g
                             28 	.globl _arrow_water_g
                             29 	.globl _arrow_normal_g
                             30 	.globl _arrow_fire_v
                             31 	.globl _arrow_blast_v
                             32 	.globl _arrow_stone_v
                             33 	.globl _arrow_water_v
                             34 	.globl _arrow_normal_v
                             35 	.globl _arrow_fire_d
                             36 	.globl _arrow_blast_d
                             37 	.globl _arrow_stone_d
                             38 	.globl _arrow_water_d
                             39 	.globl _arrow_normal_d
                             40 	.globl _arrow_fire
                             41 	.globl _arrow_blast
                             42 	.globl _arrow_stone
                             43 	.globl _arrow_water
                             44 	.globl _arrow_normal
                             45 	.globl _SetupArrow
                             46 	.globl _CheckCollisionArrowTile
                             47 	.globl _RedirectArrow
                             48 ;--------------------------------------------------------
                             49 ; special function registers
                             50 ;--------------------------------------------------------
                             51 ;--------------------------------------------------------
                             52 ; ram data
                             53 ;--------------------------------------------------------
                             54 	.area _DATA
   0000                      55 _damage_cooldown::
   0000                      56 	.ds 1
   0001                      57 _attack_wait::
   0001                      58 	.ds 1
   0002                      59 _tile_a_collision::
   0002                      60 	.ds 1
   0003                      61 _internal_t::
   0003                      62 	.ds 1
                             63 ;--------------------------------------------------------
                             64 ; CODE rom data
                             65 ;--------------------------------------------------------
                             66 	.area _CODE
   0000                      67 _bank_SpriteArrow:
   0000 02                   68 	.db #0x02	; 2
                             69 ;--------------------------------------------------------
                             70 ; absolute external ram data
                             71 ;--------------------------------------------------------
                             72 	.area _DABS (ABS)
                             73 ;--------------------------------------------------------
                             74 ; global & static initialisations
                             75 ;--------------------------------------------------------
                             76 	.area _HOME
                             77 	.area _GSINIT
                             78 	.area _GSFINAL
                             79 	.area _GSINIT
                             80 ;custom_datas.h:44: UINT8 damage_cooldown = 30u;
   0000 21r00r00             81 	ld	hl, #_damage_cooldown
   0003 36 1E                82 	ld	(hl), #0x1e
                             83 ;custom_datas.h:45: UINT8 attack_wait = 32u;
   0005 21r01r00             84 	ld	hl, #_attack_wait
   0008 36 20                85 	ld	(hl), #0x20
                             86 ;--------------------------------------------------------
                             87 ; Home
                             88 ;--------------------------------------------------------
                             89 	.area _HOME
                             90 ;C:/GB/ZGB/common/include/Banks/SetBankCommon.h:4: void empty(void) __nonbanked {}
                             91 ;	---------------------------------
                             92 ; Function empty
                             93 ; ---------------------------------
   0000                      94 _empty::
   0000 C9                   95 	ret
                             96 	.area _HOME
                             97 ;--------------------------------------------------------
                             98 ; code
                             99 ;--------------------------------------------------------
                            100 	.area _CODE_2
                            101 ;SpriteArrow.c:38: void Start_SpriteArrow() {
                            102 ;	---------------------------------
                            103 ; Function Start_SpriteArrow
                            104 ; ---------------------------------
   0000                     105 _Start_SpriteArrow::
                            106 ;SpriteArrow.c:40: THIS->coll_x = 5;
   0000 21r01r00            107 	ld	hl, #_THIS + 1
   0003 2B                  108 	dec	hl
   0004 4E                  109 	ld	c, (hl)
   0005 23                  110 	inc	hl
   0006 46                  111 	ld	b, (hl)
   0007 21 0D 00            112 	ld	hl, #0x000d
   000A 09                  113 	add	hl, bc
   000B 4D                  114 	ld	c,l
   000C 7C                  115 	ld	a,h
   000D 36 05               116 	ld	(hl), #0x05
                            117 ;SpriteArrow.c:41: THIS->coll_y = 6;
   000F 21r01r00            118 	ld	hl, #_THIS + 1
   0012 2B                  119 	dec	hl
   0013 4E                  120 	ld	c, (hl)
   0014 23                  121 	inc	hl
   0015 46                  122 	ld	b, (hl)
   0016 21 0E 00            123 	ld	hl, #0x000e
   0019 09                  124 	add	hl, bc
   001A 4D                  125 	ld	c,l
   001B 7C                  126 	ld	a,h
   001C 36 06               127 	ld	(hl), #0x06
                            128 ;SpriteArrow.c:42: THIS->coll_w = 3;
   001E 21r01r00            129 	ld	hl, #_THIS + 1
   0021 2B                  130 	dec	hl
   0022 4E                  131 	ld	c, (hl)
   0023 23                  132 	inc	hl
   0024 46                  133 	ld	b, (hl)
   0025 21 0F 00            134 	ld	hl, #0x000f
   0028 09                  135 	add	hl, bc
   0029 4D                  136 	ld	c,l
   002A 7C                  137 	ld	a,h
   002B 36 03               138 	ld	(hl), #0x03
                            139 ;SpriteArrow.c:43: THIS->coll_h = 3;
   002D 21r01r00            140 	ld	hl, #_THIS + 1
   0030 2B                  141 	dec	hl
   0031 4E                  142 	ld	c, (hl)
   0032 23                  143 	inc	hl
   0033 46                  144 	ld	b, (hl)
   0034 21 10 00            145 	ld	hl, #0x0010
   0037 09                  146 	add	hl, bc
   0038 4D                  147 	ld	c,l
   0039 7C                  148 	ld	a,h
   003A 36 03               149 	ld	(hl), #0x03
                            150 ;SpriteArrow.c:45: struct ArrowInfo* data = (struct ArrowInfo*)THIS->custom_data;
   003C 21r01r00            151 	ld	hl, #_THIS + 1
   003F 2B                  152 	dec	hl
   0040 4E                  153 	ld	c, (hl)
   0041 23                  154 	inc	hl
   0042 46                  155 	ld	b, (hl)
   0043 21 19 00            156 	ld	hl, #0x0019
   0046 09                  157 	add	hl, bc
   0047 4D                  158 	ld	c, l
   0048 7C                  159 	ld	a, h
   0049 47                  160 	ld	b, a
                            161 ;SpriteArrow.c:46: data->type = 0;
   004A 59                  162 	ld	e, c
   004B 50                  163 	ld	d, b
   004C 1A                  164 	ld	a, (de)
   004D E6 F0               165 	and	a, #0xf0
   004F 12                  166 	ld	(de),a
                            167 ;SpriteArrow.c:47: data->original_type = 0;
   0050 59                  168 	ld	e, c
   0051 50                  169 	ld	d, b
   0052 1A                  170 	ld	a, (de)
   0053 E6 0F               171 	and	a, #0x0f
   0055 12                  172 	ld	(de),a
                            173 ;SpriteArrow.c:48: data->arrowdir = -1;
   0056 03                  174 	inc	bc
   0057 03                  175 	inc	bc
   0058 03                  176 	inc	bc
   0059 78                  177 	ld	a, b
   005A 69                  178 	ld	l, c
   005B 67                  179 	ld	h, a
   005C 36 FF               180 	ld	(hl), #0xff
                            181 ;SpriteArrow.c:49: }
   005E C9                  182 	ret
   005F                     183 _arrow_normal:
   005F 01                  184 	.db #0x01	; 1
   0060 00                  185 	.db #0x00	; 0
   0061                     186 _arrow_water:
   0061 01                  187 	.db #0x01	; 1
   0062 01                  188 	.db #0x01	; 1
   0063                     189 _arrow_stone:
   0063 01                  190 	.db #0x01	; 1
   0064 02                  191 	.db #0x02	; 2
   0065                     192 _arrow_blast:
   0065 01                  193 	.db #0x01	; 1
   0066 03                  194 	.db #0x03	; 3
   0067                     195 _arrow_fire:
   0067 01                  196 	.db #0x01	; 1
   0068 04                  197 	.db #0x04	; 4
   0069                     198 _arrow_normal_d:
   0069 01                  199 	.db #0x01	; 1
   006A 05                  200 	.db #0x05	; 5
   006B                     201 _arrow_water_d:
   006B 01                  202 	.db #0x01	; 1
   006C 06                  203 	.db #0x06	; 6
   006D                     204 _arrow_stone_d:
   006D 01                  205 	.db #0x01	; 1
   006E 07                  206 	.db #0x07	; 7
   006F                     207 _arrow_blast_d:
   006F 01                  208 	.db #0x01	; 1
   0070 08                  209 	.db #0x08	; 8
   0071                     210 _arrow_fire_d:
   0071 01                  211 	.db #0x01	; 1
   0072 09                  212 	.db #0x09	; 9
   0073                     213 _arrow_normal_v:
   0073 01                  214 	.db #0x01	; 1
   0074 0A                  215 	.db #0x0a	; 10
   0075                     216 _arrow_water_v:
   0075 01                  217 	.db #0x01	; 1
   0076 0B                  218 	.db #0x0b	; 11
   0077                     219 _arrow_stone_v:
   0077 01                  220 	.db #0x01	; 1
   0078 0C                  221 	.db #0x0c	; 12
   0079                     222 _arrow_blast_v:
   0079 01                  223 	.db #0x01	; 1
   007A 0D                  224 	.db #0x0d	; 13
   007B                     225 _arrow_fire_v:
   007B 01                  226 	.db #0x01	; 1
   007C 0E                  227 	.db #0x0e	; 14
   007D                     228 _arrow_normal_g:
   007D 01                  229 	.db #0x01	; 1
   007E 0F                  230 	.db #0x0f	; 15
   007F                     231 _arrow_water_g:
   007F 01                  232 	.db #0x01	; 1
   0080 10                  233 	.db #0x10	; 16
   0081                     234 _arrow_stone_g:
   0081 01                  235 	.db #0x01	; 1
   0082 11                  236 	.db #0x11	; 17
   0083                     237 _arrow_blast_g:
   0083 01                  238 	.db #0x01	; 1
   0084 12                  239 	.db #0x12	; 18
   0085                     240 _arrow_fire_g:
   0085 01                  241 	.db #0x01	; 1
   0086 13                  242 	.db #0x13	; 19
   0087                     243 _spine:
   0087 01                  244 	.db #0x01	; 1
   0088 14                  245 	.db #0x14	; 20
                            246 ;SpriteArrow.c:51: void Update_SpriteArrow() {
                            247 ;	---------------------------------
                            248 ; Function Update_SpriteArrow
                            249 ; ---------------------------------
   0089                     250 _Update_SpriteArrow::
   0089 E8 F9               251 	add	sp, #-7
                            252 ;SpriteArrow.c:54: struct ArrowInfo* data = (struct ArrowInfo*)THIS->custom_data;
   008B 21r00r00            253 	ld	hl, #_THIS
   008E 46                  254 	ld	b, (hl)
   008F 23                  255 	inc	hl
   0090 4E                  256 	ld	c, (hl)
   0091 78                  257 	ld	a, b
   0092 C6 19               258 	add	a, #0x19
   0094 47                  259 	ld	b, a
   0095 30 01               260 	jr	NC,00161$
   0097 0C                  261 	inc	c
   0098                     262 00161$:
   0098 F8 05               263 	ldhl	sp,	#5
   009A 70                  264 	ld	(hl), b
   009B 23                  265 	inc	hl
   009C 71                  266 	ld	(hl), c
                            267 ;SpriteArrow.c:55: internal_t = data->type;
   009D 2B                  268 	dec	hl
   009E 4E                  269 	ld	c, (hl)
   009F 23                  270 	inc	hl
   00A0 46                  271 	ld	b, (hl)
   00A1 69                  272 	ld	l, c
   00A2 60                  273 	ld	h, b
   00A3 7E                  274 	ld	a, (hl)
   00A4 E6 0F               275 	and	a, #0x0f
   00A6 21r03r00            276 	ld	hl, #_internal_t
                            277 ;SpriteArrow.c:56: if (internal_t != 0 & data->arrowdir != -1) {
   00A9 77                  278 	ld	(hl),a
   00AA D6 01               279 	sub	a,#0x01
   00AC 3E 00               280 	ld	a, #0x00
   00AE 17                  281 	rla
   00AF EE 01               282 	xor	a, #0x01
   00B1 F8 04               283 	ldhl	sp,	#4
   00B3 22                  284 	ld	(hl+), a
   00B4 4E                  285 	ld	c, (hl)
   00B5 23                  286 	inc	hl
   00B6 46                  287 	ld	b, (hl)
   00B7 03                  288 	inc	bc
   00B8 03                  289 	inc	bc
   00B9 03                  290 	inc	bc
   00BA 0A                  291 	ld	a, (bc)
   00BB 3C                  292 	inc	a
   00BC 3E 01               293 	ld	a, #0x01
   00BE 28 01               294 	jr	Z,00163$
   00C0 AF                  295 	xor	a, a
   00C1                     296 00163$:
   00C1 EE 01               297 	xor	a, #0x01
   00C3 F8 04               298 	ldhl	sp,	#4
   00C5 A6                  299 	and	a, (hl)
   00C6 CB 47               300 	bit	0, a
   00C8 28 16               301 	jr	Z,00102$
                            302 ;SpriteArrow.c:57: SetupArrow();
   00CA CDr31r02            303 	call	_SetupArrow
                            304 ;SpriteArrow.c:58: data->original_type = internal_t;
   00CD F8 05               305 	ldhl	sp,#(6 - 1)
   00CF 4E                  306 	ld	c, (hl)
   00D0 23                  307 	inc	hl
   00D1 46                  308 	ld	b, (hl)
   00D2 21r03r00            309 	ld	hl, #_internal_t
   00D5 7E                  310 	ld	a, (hl)
   00D6 CB 37               311 	swap	a
   00D8 E6 F0               312 	and	a, #0xf0
   00DA 6F                  313 	ld	l, a
   00DB 0A                  314 	ld	a, (bc)
   00DC E6 0F               315 	and	a, #0x0f
   00DE B5                  316 	or	a, l
   00DF 02                  317 	ld	(bc), a
   00E0                     318 00102$:
                            319 ;SpriteArrow.c:54: struct ArrowInfo* data = (struct ArrowInfo*)THIS->custom_data;
   00E0 21r00r00            320 	ld	hl, #_THIS
   00E3 2A                  321 	ld	a, (hl+)
   00E4 5E                  322 	ld	e, (hl)
   00E5 F8 00               323 	ldhl	sp,	#0
   00E7 22                  324 	ld	(hl+), a
   00E8 73                  325 	ld	(hl), e
                            326 ;SpriteArrow.c:60: if(SPRITE_GET_VMIRROR(THIS)) {
   00E9 D1                  327 	pop	de
   00EA D5                  328 	push	de
   00EB 21 0C 00            329 	ld	hl, #0x000c
   00EE 19                  330 	add	hl, de
   00EF 4D                  331 	ld	c, l
   00F0 44                  332 	ld	b, h
   00F1 0A                  333 	ld	a, (bc)
   00F2 F8 02               334 	ldhl	sp,	#2
   00F4 77                  335 	ld	(hl), a
                            336 ;SpriteArrow.c:62: tile_a_collision = TranslateSprite(THIS, -data->vx << delta_time, data->vy << delta_time);
   00F5 F8 05               337 	ldhl	sp,#(6 - 1)
   00F7 4E                  338 	ld	c, (hl)
   00F8 23                  339 	inc	hl
   00F9 46                  340 	ld	b, (hl)
   00FA 03                  341 	inc	bc
   00FB 03                  342 	inc	bc
   00FC 2B                  343 	dec	hl
   00FD 5E                  344 	ld	e, (hl)
   00FE 23                  345 	inc	hl
   00FF 56                  346 	ld	d, (hl)
   0100 21 01 00            347 	ld	hl, #0x0001
   0103 19                  348 	add	hl, de
   0104 7D                  349 	ld	a, l
   0105 54                  350 	ld	d, h
   0106 F8 03               351 	ldhl	sp,	#3
   0108 22                  352 	ld	(hl+), a
   0109 72                  353 	ld	(hl), d
                            354 ;SpriteArrow.c:61: THIS->coll_x = 0;
   010A D1                  355 	pop	de
   010B D5                  356 	push	de
   010C 21 0D 00            357 	ld	hl, #0x000d
   010F 19                  358 	add	hl, de
   0110 7D                  359 	ld	a, l
   0111 54                  360 	ld	d, h
   0112 F8 05               361 	ldhl	sp,	#5
   0114 22                  362 	ld	(hl+), a
   0115 72                  363 	ld	(hl), d
                            364 ;SpriteArrow.c:60: if(SPRITE_GET_VMIRROR(THIS)) {
   0116 F8 02               365 	ldhl	sp,	#2
   0118 CB 6E               366 	bit	5, (hl)
   011A CAr61r01            367 	jp	Z,00104$
                            368 ;SpriteArrow.c:61: THIS->coll_x = 0;
   011D F8 05               369 	ldhl	sp,	#5
   011F 2A                  370 	ld	a, (hl+)
   0120 66                  371 	ld	h, (hl)
   0121 6F                  372 	ld	l, a
   0122 36 00               373 	ld	(hl), #0x00
                            374 ;SpriteArrow.c:62: tile_a_collision = TranslateSprite(THIS, -data->vx << delta_time, data->vy << delta_time);
   0124 0A                  375 	ld	a, (bc)
   0125 47                  376 	ld	b, a
   0126 21r00r00            377 	ld	hl, #_delta_time
   0129 4E                  378 	ld	c, (hl)
   012A 79                  379 	ld	a, c
   012B 3C                  380 	inc	a
   012C 18 02               381 	jr	00166$
   012E                     382 00165$:
   012E CB 20               383 	sla	b
   0130                     384 00166$:
   0130 3D                  385 	dec	a
   0131 20 FB               386 	jr	NZ,00165$
   0133 F8 03               387 	ldhl	sp,#(4 - 1)
   0135 5E                  388 	ld	e, (hl)
   0136 23                  389 	inc	hl
   0137 56                  390 	ld	d, (hl)
   0138 1A                  391 	ld	a, (de)
   0139 E6 0F               392 	and	a, #0x0f
   013B 23                  393 	inc	hl
   013C 23                  394 	inc	hl
   013D 77                  395 	ld	(hl), a
   013E AF                  396 	xor	a, a
   013F 96                  397 	sub	a, (hl)
   0140 77                  398 	ld	(hl), a
   0141 56                  399 	ld	d, (hl)
   0142 0C                  400 	inc	c
   0143 18 02               401 	jr	00168$
   0145                     402 00167$:
   0145 CB 22               403 	sla	d
   0147                     404 00168$:
   0147 0D                  405 	dec	c
   0148 20 FB               406 	jr	NZ,00167$
   014A C5                  407 	push	bc
   014B 33                  408 	inc	sp
   014C D5                  409 	push	de
   014D 33                  410 	inc	sp
   014E 21r00r00            411 	ld	hl, #_THIS
   0151 2A                  412 	ld	a, (hl+)
   0152 66                  413 	ld	h, (hl)
   0153 6F                  414 	ld	l, a
   0154 E5                  415 	push	hl
   0155 CDr00r00            416 	call	_TranslateSprite
   0158 E8 04               417 	add	sp, #4
   015A 21r02r00            418 	ld	hl, #_tile_a_collision
   015D 73                  419 	ld	(hl), e
   015E C3r9Cr01            420 	jp	00105$
   0161                     421 00104$:
                            422 ;SpriteArrow.c:64: THIS->coll_x = 5;
   0161 F8 05               423 	ldhl	sp,	#5
   0163 2A                  424 	ld	a, (hl+)
   0164 66                  425 	ld	h, (hl)
   0165 6F                  426 	ld	l, a
   0166 36 05               427 	ld	(hl), #0x05
                            428 ;SpriteArrow.c:65: tile_a_collision = TranslateSprite(THIS, data->vx << delta_time, data->vy << delta_time);
   0168 0A                  429 	ld	a, (bc)
   0169 47                  430 	ld	b, a
   016A 21r00r00            431 	ld	hl, #_delta_time
   016D 4E                  432 	ld	c, (hl)
   016E 79                  433 	ld	a, c
   016F 3C                  434 	inc	a
   0170 18 02               435 	jr	00170$
   0172                     436 00169$:
   0172 CB 20               437 	sla	b
   0174                     438 00170$:
   0174 3D                  439 	dec	a
   0175 20 FB               440 	jr	NZ,00169$
   0177 F8 03               441 	ldhl	sp,#(4 - 1)
   0179 5E                  442 	ld	e, (hl)
   017A 23                  443 	inc	hl
   017B 56                  444 	ld	d, (hl)
   017C 1A                  445 	ld	a, (de)
   017D E6 0F               446 	and	a, #0x0f
   017F 57                  447 	ld	d, a
   0180 0C                  448 	inc	c
   0181 18 02               449 	jr	00172$
   0183                     450 00171$:
   0183 CB 22               451 	sla	d
   0185                     452 00172$:
   0185 0D                  453 	dec	c
   0186 20 FB               454 	jr	NZ,00171$
   0188 C5                  455 	push	bc
   0189 33                  456 	inc	sp
   018A D5                  457 	push	de
   018B 33                  458 	inc	sp
   018C 21r00r00            459 	ld	hl, #_THIS
   018F 2A                  460 	ld	a, (hl+)
   0190 66                  461 	ld	h, (hl)
   0191 6F                  462 	ld	l, a
   0192 E5                  463 	push	hl
   0193 CDr00r00            464 	call	_TranslateSprite
   0196 E8 04               465 	add	sp, #4
   0198 21r02r00            466 	ld	hl, #_tile_a_collision
   019B 73                  467 	ld	(hl), e
   019C                     468 00105$:
                            469 ;SpriteArrow.c:67: if(tile_a_collision){
   019C 21r02r00            470 	ld	hl, #_tile_a_collision
   019F 7E                  471 	ld	a, (hl)
   01A0 B7                  472 	or	a, a
   01A1 28 03               473 	jr	Z,00107$
                            474 ;SpriteArrow.c:68: CheckCollisionArrowTile();
   01A3 CDr2Dr06            475 	call	_CheckCollisionArrowTile
   01A6                     476 00107$:
                            477 ;SpriteArrow.c:70: SPRITEMANAGER_ITERATE(scroll_a_tile, iaspr) {
   01A6 FAr01r00            478 	ld	a, (#(_sprite_manager_updatables + 0x0001) + 0)
   01A9 4F                  479 	ld	c, a
   01AA 06 00               480 	ld	b, #0x00
   01AC CB 21               481 	sla	c
   01AE CB 10               482 	rl	b
   01B0 21r00r00            483 	ld	hl, #_sprite_manager_sprites
   01B3 09                  484 	add	hl, bc
   01B4 4D                  485 	ld	c,l
   01B5 44                  486 	ld	b,h
   01B6 4E                  487 	ld	c, (hl)
   01B7 23                  488 	inc	hl
   01B8 46                  489 	ld	b, (hl)
   01B9 AF                  490 	xor	a, a
   01BA F8 06               491 	ldhl	sp,	#6
   01BC 77                  492 	ld	(hl), a
   01BD                     493 00116$:
   01BD 21r00r00            494 	ld	hl, #_sprite_manager_updatables + 0
   01C0 7E                  495 	ld	a, (hl)
   01C1 F8 05               496 	ldhl	sp,	#5
   01C3 77                  497 	ld	(hl), a
   01C4 F8 06               498 	ldhl	sp,	#6
   01C6 3A                  499 	ld	a, (hl-)
   01C7 96                  500 	sub	a, (hl)
   01C8 CAr2Er02            501 	jp	Z,00118$
                            502 ;SpriteArrow.c:71: if(iaspr->type == SpriteItem) {
   01CB 21 11 00            503 	ld	hl, #0x0011
   01CE 09                  504 	add	hl, bc
   01CF 7D                  505 	ld	a, l
   01D0 54                  506 	ld	d, h
   01D1 F8 04               507 	ldhl	sp,	#4
   01D3 22                  508 	ld	(hl+), a
   01D4 72                  509 	ld	(hl), d
   01D5 2B                  510 	dec	hl
   01D6 5E                  511 	ld	e, (hl)
   01D7 23                  512 	inc	hl
   01D8 56                  513 	ld	d, (hl)
   01D9 1A                  514 	ld	a,(de)
   01DA D6 03               515 	sub	a, #0x03
   01DC C2r0Er02            516 	jp	NZ,00117$
                            517 ;SpriteArrow.c:72: if(CheckCollision(THIS, iaspr)) {
   01DF C5                  518 	push	bc
   01E0 C5                  519 	push	bc
   01E1 21r00r00            520 	ld	hl, #_THIS
   01E4 2A                  521 	ld	a, (hl+)
   01E5 66                  522 	ld	h, (hl)
   01E6 6F                  523 	ld	l, a
   01E7 E5                  524 	push	hl
   01E8 CDr00r00            525 	call	_CheckCollision
   01EB E8 04               526 	add	sp, #4
   01ED 7B                  527 	ld	a, e
   01EE C1                  528 	pop	bc
   01EF B7                  529 	or	a, a
   01F0 28 1C               530 	jr	Z,00117$
                            531 ;SpriteArrow.c:73: struct ItemInfo* item_data = (struct ItemInfo*)iaspr->custom_data;
   01F2 21 19 00            532 	ld	hl, #0x0019
   01F5 09                  533 	add	hl, bc
   01F6 4D                  534 	ld	c, l
   01F7 7C                  535 	ld	a, h
   01F8 47                  536 	ld	b, a
                            537 ;SpriteArrow.c:74: if (item_data->collided == 0u){
   01F9 0A                  538 	ld	a, (bc)
   01FA B7                  539 	or	a, a
   01FB 20 0E               540 	jr	NZ,00109$
                            541 ;SpriteArrow.c:75: SpriteManagerRemove(THIS_IDX);
   01FD 21r00r00            542 	ld	hl, #_THIS_IDX
   0200 5E                  543 	ld	e, (hl)
   0201 16 00               544 	ld	d, #0x00
   0203 C5                  545 	push	bc
   0204 D5                  546 	push	de
   0205 CDr00r00            547 	call	_SpriteManagerRemove
   0208 E8 02               548 	add	sp, #2
   020A C1                  549 	pop	bc
   020B                     550 00109$:
                            551 ;SpriteArrow.c:77: item_data->collided = 1u;
   020B 3E 01               552 	ld	a, #0x01
   020D 02                  553 	ld	(bc), a
   020E                     554 00117$:
                            555 ;SpriteArrow.c:70: SPRITEMANAGER_ITERATE(scroll_a_tile, iaspr) {
   020E F8 06               556 	ldhl	sp,	#6
   0210 34                  557 	inc	(hl)
   0211 4E                  558 	ld	c, (hl)
   0212 06 00               559 	ld	b, #0x00
   0214 03                  560 	inc	bc
   0215 21r00r00            561 	ld	hl, #_sprite_manager_updatables
   0218 09                  562 	add	hl, bc
   0219 4D                  563 	ld	c,l
   021A 7C                  564 	ld	a,h
   021B 4E                  565 	ld	c, (hl)
   021C 06 00               566 	ld	b, #0x00
   021E CB 21               567 	sla	c
   0220 CB 10               568 	rl	b
   0222 21r00r00            569 	ld	hl, #_sprite_manager_sprites
   0225 09                  570 	add	hl, bc
   0226 4D                  571 	ld	c,l
   0227 44                  572 	ld	b,h
   0228 4E                  573 	ld	c, (hl)
   0229 23                  574 	inc	hl
   022A 46                  575 	ld	b, (hl)
   022B C3rBDr01            576 	jp	00116$
   022E                     577 00118$:
                            578 ;SpriteArrow.c:86: }
   022E E8 07               579 	add	sp, #7
   0230 C9                  580 	ret
                            581 ;SpriteArrow.c:88: void SetupArrow(){
                            582 ;	---------------------------------
                            583 ; Function SetupArrow
                            584 ; ---------------------------------
   0231                     585 _SetupArrow::
   0231 E8 FA               586 	add	sp, #-6
                            587 ;SpriteArrow.c:89: struct ArrowInfo* data = (struct ArrowInfo*)THIS->custom_data;
   0233 21r00r00            588 	ld	hl, #_THIS
   0236 46                  589 	ld	b, (hl)
   0237 23                  590 	inc	hl
   0238 4E                  591 	ld	c, (hl)
   0239 78                  592 	ld	a, b
   023A C6 19               593 	add	a, #0x19
   023C 47                  594 	ld	b, a
   023D 30 01               595 	jr	NC,00247$
   023F 0C                  596 	inc	c
   0240                     597 00247$:
   0240 F8 00               598 	ldhl	sp,	#0
   0242 70                  599 	ld	(hl), b
   0243 23                  600 	inc	hl
   0244 71                  601 	ld	(hl), c
                            602 ;SpriteArrow.c:90: data->arrowdamage = 10u;
   0245 D1                  603 	pop	de
   0246 D5                  604 	push	de
   0247 21 04 00            605 	ld	hl, #0x0004
   024A 19                  606 	add	hl, de
   024B 4D                  607 	ld	c,l
   024C 7C                  608 	ld	a,h
   024D 36 0A               609 	ld	(hl), #0x0a
                            610 ;SpriteArrow.c:91: switch(internal_t) {
   024F 3E 06               611 	ld	a, #0x06
   0251 21r03r00            612 	ld	hl, #_internal_t
   0254 96                  613 	sub	a, (hl)
   0255 DAr2Ar06            614 	jp	C, 00135$
                            615 ;SpriteArrow.c:93: switch(data->arrowdir){
   0258 D1                  616 	pop	de
   0259 D5                  617 	push	de
   025A 21 03 00            618 	ld	hl, #0x0003
   025D 19                  619 	add	hl, de
   025E 7D                  620 	ld	a, l
   025F 54                  621 	ld	d, h
   0260 F8 02               622 	ldhl	sp,	#2
   0262 22                  623 	ld	(hl+), a
   0263 72                  624 	ld	(hl), d
                            625 ;SpriteArrow.c:95: data->vy = 0;
   0264 C1                  626 	pop	bc
   0265 C5                  627 	push	bc
   0266 03                  628 	inc	bc
   0267 03                  629 	inc	bc
                            630 ;SpriteArrow.c:96: data->vx = 2;
   0268 D1                  631 	pop	de
   0269 D5                  632 	push	de
   026A 21 01 00            633 	ld	hl, #0x0001
   026D 19                  634 	add	hl, de
   026E 7D                  635 	ld	a, l
   026F 54                  636 	ld	d, h
   0270 F8 04               637 	ldhl	sp,	#4
   0272 22                  638 	ld	(hl+), a
   0273 72                  639 	ld	(hl), d
                            640 ;SpriteArrow.c:91: switch(internal_t) {
   0274 21r03r00            641 	ld	hl, #_internal_t
   0277 5E                  642 	ld	e, (hl)
   0278 16 00               643 	ld	d, #0x00
   027A 21r81r02            644 	ld	hl, #00248$
   027D 19                  645 	add	hl, de
   027E 19                  646 	add	hl, de
   027F 19                  647 	add	hl, de
   0280 E9                  648 	jp	(hl)
   0281                     649 00248$:
   0281 C3r2Ar06            650 	jp	00135$
   0284 C3r96r02            651 	jp	00101$
   0287 C3r45r03            652 	jp	00107$
   028A C3rF4r03            653 	jp	00113$
   028D C3rA3r04            654 	jp	00119$
   0290 C3r52r05            655 	jp	00125$
   0293 C3r01r06            656 	jp	00131$
                            657 ;SpriteArrow.c:92: case 1:
   0296                     658 00101$:
                            659 ;SpriteArrow.c:93: switch(data->arrowdir){
   0296 F8 02               660 	ldhl	sp,#(3 - 1)
   0298 5E                  661 	ld	e, (hl)
   0299 23                  662 	inc	hl
   029A 56                  663 	ld	d, (hl)
   029B 1A                  664 	ld	a,(de)
   029C FE 01               665 	cp	a, #0x01
   029E 28 11               666 	jr	Z,00102$
   02A0 FE 02               667 	cp	a, #0x02
   02A2 28 31               668 	jr	Z,00103$
   02A4 FE 03               669 	cp	a, #0x03
   02A6 CArFAr02            670 	jp	Z,00104$
   02A9 D6 04               671 	sub	a, #0x04
   02AB CAr1Cr03            672 	jp	Z,00105$
   02AE C3r3Cr03            673 	jp	00106$
                            674 ;SpriteArrow.c:94: case 1: //orizzontale
   02B1                     675 00102$:
                            676 ;SpriteArrow.c:95: data->vy = 0;
   02B1 AF                  677 	xor	a, a
   02B2 02                  678 	ld	(bc), a
                            679 ;SpriteArrow.c:96: data->vx = 2;
   02B3 F8 04               680 	ldhl	sp,	#4
   02B5 2A                  681 	ld	a, (hl+)
   02B6 66                  682 	ld	h, (hl)
   02B7 6F                  683 	ld	l, a
   02B8 7E                  684 	ld	a, (hl)
   02B9 E6 F0               685 	and	a, #0xf0
   02BB F6 02               686 	or	a, #0x02
   02BD 77                  687 	ld	(hl),a
                            688 ;SpriteArrow.c:97: SetSpriteAnim(THIS, arrow_normal, 18u);	
   02BE 3E 12               689 	ld	a, #0x12
   02C0 F5                  690 	push	af
   02C1 33                  691 	inc	sp
   02C2 21r5Fr00            692 	ld	hl, #_arrow_normal
   02C5 E5                  693 	push	hl
   02C6 21r00r00            694 	ld	hl, #_THIS
   02C9 2A                  695 	ld	a, (hl+)
   02CA 66                  696 	ld	h, (hl)
   02CB 6F                  697 	ld	l, a
   02CC E5                  698 	push	hl
   02CD CDr00r00            699 	call	_SetSpriteAnim
   02D0 E8 05               700 	add	sp, #5
                            701 ;SpriteArrow.c:98: break;
   02D2 C3r3Cr03            702 	jp	00106$
                            703 ;SpriteArrow.c:99: case 2: //diagonale
   02D5                     704 00103$:
                            705 ;SpriteArrow.c:100: data->vy = -1;
   02D5 3E FF               706 	ld	a, #0xff
   02D7 02                  707 	ld	(bc), a
                            708 ;SpriteArrow.c:101: data->vx = 2;
   02D8 F8 04               709 	ldhl	sp,	#4
   02DA 2A                  710 	ld	a, (hl+)
   02DB 66                  711 	ld	h, (hl)
   02DC 6F                  712 	ld	l, a
   02DD 7E                  713 	ld	a, (hl)
   02DE E6 F0               714 	and	a, #0xf0
   02E0 F6 02               715 	or	a, #0x02
   02E2 77                  716 	ld	(hl),a
                            717 ;SpriteArrow.c:102: SetSpriteAnim(THIS, arrow_normal_d, 18u);	
   02E3 3E 12               718 	ld	a, #0x12
   02E5 F5                  719 	push	af
   02E6 33                  720 	inc	sp
   02E7 21r69r00            721 	ld	hl, #_arrow_normal_d
   02EA E5                  722 	push	hl
   02EB 21r00r00            723 	ld	hl, #_THIS
   02EE 2A                  724 	ld	a, (hl+)
   02EF 66                  725 	ld	h, (hl)
   02F0 6F                  726 	ld	l, a
   02F1 E5                  727 	push	hl
   02F2 CDr00r00            728 	call	_SetSpriteAnim
   02F5 E8 05               729 	add	sp, #5
                            730 ;SpriteArrow.c:103: break;
   02F7 C3r3Cr03            731 	jp	00106$
                            732 ;SpriteArrow.c:104: case 3: //verticale in su
   02FA                     733 00104$:
                            734 ;SpriteArrow.c:105: data->vy = -2;
   02FA 3E FE               735 	ld	a, #0xfe
   02FC 02                  736 	ld	(bc), a
                            737 ;SpriteArrow.c:106: data->vx = 0;
   02FD F8 04               738 	ldhl	sp,	#4
   02FF 2A                  739 	ld	a, (hl+)
   0300 66                  740 	ld	h, (hl)
   0301 6F                  741 	ld	l, a
   0302 7E                  742 	ld	a, (hl)
   0303 E6 F0               743 	and	a, #0xf0
   0305 77                  744 	ld	(hl),a
                            745 ;SpriteArrow.c:107: SetSpriteAnim(THIS, arrow_normal_v, 18u);	
   0306 3E 12               746 	ld	a, #0x12
   0308 F5                  747 	push	af
   0309 33                  748 	inc	sp
   030A 21r73r00            749 	ld	hl, #_arrow_normal_v
   030D E5                  750 	push	hl
   030E 21r00r00            751 	ld	hl, #_THIS
   0311 2A                  752 	ld	a, (hl+)
   0312 66                  753 	ld	h, (hl)
   0313 6F                  754 	ld	l, a
   0314 E5                  755 	push	hl
   0315 CDr00r00            756 	call	_SetSpriteAnim
   0318 E8 05               757 	add	sp, #5
                            758 ;SpriteArrow.c:108: break;
   031A 18 20               759 	jr	00106$
                            760 ;SpriteArrow.c:109: case 4: //verticale in giu
   031C                     761 00105$:
                            762 ;SpriteArrow.c:110: data->vy = 2;
   031C 3E 02               763 	ld	a, #0x02
   031E 02                  764 	ld	(bc), a
                            765 ;SpriteArrow.c:111: data->vx = 0;
   031F F8 04               766 	ldhl	sp,	#4
   0321 2A                  767 	ld	a, (hl+)
   0322 66                  768 	ld	h, (hl)
   0323 6F                  769 	ld	l, a
   0324 7E                  770 	ld	a, (hl)
   0325 E6 F0               771 	and	a, #0xf0
   0327 77                  772 	ld	(hl),a
                            773 ;SpriteArrow.c:112: SetSpriteAnim(THIS, arrow_normal_g, 18u);	
   0328 3E 12               774 	ld	a, #0x12
   032A F5                  775 	push	af
   032B 33                  776 	inc	sp
   032C 21r7Dr00            777 	ld	hl, #_arrow_normal_g
   032F E5                  778 	push	hl
   0330 21r00r00            779 	ld	hl, #_THIS
   0333 2A                  780 	ld	a, (hl+)
   0334 66                  781 	ld	h, (hl)
   0335 6F                  782 	ld	l, a
   0336 E5                  783 	push	hl
   0337 CDr00r00            784 	call	_SetSpriteAnim
   033A E8 05               785 	add	sp, #5
                            786 ;SpriteArrow.c:114: }
   033C                     787 00106$:
                            788 ;SpriteArrow.c:115: data->type = 0;
   033C C1                  789 	pop	bc
   033D C5                  790 	push	bc
   033E 0A                  791 	ld	a, (bc)
   033F E6 F0               792 	and	a, #0xf0
   0341 02                  793 	ld	(bc),a
                            794 ;SpriteArrow.c:116: break;
   0342 C3r2Ar06            795 	jp	00135$
                            796 ;SpriteArrow.c:117: case 2:
   0345                     797 00107$:
                            798 ;SpriteArrow.c:118: switch(data->arrowdir){
   0345 F8 02               799 	ldhl	sp,#(3 - 1)
   0347 5E                  800 	ld	e, (hl)
   0348 23                  801 	inc	hl
   0349 56                  802 	ld	d, (hl)
   034A 1A                  803 	ld	a,(de)
   034B FE 01               804 	cp	a, #0x01
   034D 28 11               805 	jr	Z,00108$
   034F FE 02               806 	cp	a, #0x02
   0351 28 31               807 	jr	Z,00109$
   0353 FE 03               808 	cp	a, #0x03
   0355 CArA9r03            809 	jp	Z,00110$
   0358 D6 04               810 	sub	a, #0x04
   035A CArCBr03            811 	jp	Z,00111$
   035D C3rEBr03            812 	jp	00112$
                            813 ;SpriteArrow.c:119: case 1:
   0360                     814 00108$:
                            815 ;SpriteArrow.c:120: data->vy = 0;
   0360 AF                  816 	xor	a, a
   0361 02                  817 	ld	(bc), a
                            818 ;SpriteArrow.c:121: data->vx = 2;
   0362 F8 04               819 	ldhl	sp,	#4
   0364 2A                  820 	ld	a, (hl+)
   0365 66                  821 	ld	h, (hl)
   0366 6F                  822 	ld	l, a
   0367 7E                  823 	ld	a, (hl)
   0368 E6 F0               824 	and	a, #0xf0
   036A F6 02               825 	or	a, #0x02
   036C 77                  826 	ld	(hl),a
                            827 ;SpriteArrow.c:122: SetSpriteAnim(THIS, arrow_water, 18u);	
   036D 3E 12               828 	ld	a, #0x12
   036F F5                  829 	push	af
   0370 33                  830 	inc	sp
   0371 21r61r00            831 	ld	hl, #_arrow_water
   0374 E5                  832 	push	hl
   0375 21r00r00            833 	ld	hl, #_THIS
   0378 2A                  834 	ld	a, (hl+)
   0379 66                  835 	ld	h, (hl)
   037A 6F                  836 	ld	l, a
   037B E5                  837 	push	hl
   037C CDr00r00            838 	call	_SetSpriteAnim
   037F E8 05               839 	add	sp, #5
                            840 ;SpriteArrow.c:123: break;
   0381 C3rEBr03            841 	jp	00112$
                            842 ;SpriteArrow.c:124: case 2:
   0384                     843 00109$:
                            844 ;SpriteArrow.c:125: data->vy = -1;
   0384 3E FF               845 	ld	a, #0xff
   0386 02                  846 	ld	(bc), a
                            847 ;SpriteArrow.c:126: data->vx = 2;
   0387 F8 04               848 	ldhl	sp,	#4
   0389 2A                  849 	ld	a, (hl+)
   038A 66                  850 	ld	h, (hl)
   038B 6F                  851 	ld	l, a
   038C 7E                  852 	ld	a, (hl)
   038D E6 F0               853 	and	a, #0xf0
   038F F6 02               854 	or	a, #0x02
   0391 77                  855 	ld	(hl),a
                            856 ;SpriteArrow.c:127: SetSpriteAnim(THIS, arrow_water_d, 18u);	
   0392 3E 12               857 	ld	a, #0x12
   0394 F5                  858 	push	af
   0395 33                  859 	inc	sp
   0396 21r6Br00            860 	ld	hl, #_arrow_water_d
   0399 E5                  861 	push	hl
   039A 21r00r00            862 	ld	hl, #_THIS
   039D 2A                  863 	ld	a, (hl+)
   039E 66                  864 	ld	h, (hl)
   039F 6F                  865 	ld	l, a
   03A0 E5                  866 	push	hl
   03A1 CDr00r00            867 	call	_SetSpriteAnim
   03A4 E8 05               868 	add	sp, #5
                            869 ;SpriteArrow.c:128: break;
   03A6 C3rEBr03            870 	jp	00112$
                            871 ;SpriteArrow.c:129: case 3:
   03A9                     872 00110$:
                            873 ;SpriteArrow.c:130: data->vy = -2;
   03A9 3E FE               874 	ld	a, #0xfe
   03AB 02                  875 	ld	(bc), a
                            876 ;SpriteArrow.c:131: data->vx = 0;
   03AC F8 04               877 	ldhl	sp,	#4
   03AE 2A                  878 	ld	a, (hl+)
   03AF 66                  879 	ld	h, (hl)
   03B0 6F                  880 	ld	l, a
   03B1 7E                  881 	ld	a, (hl)
   03B2 E6 F0               882 	and	a, #0xf0
   03B4 77                  883 	ld	(hl),a
                            884 ;SpriteArrow.c:132: SetSpriteAnim(THIS, arrow_water_v, 18u);	
   03B5 3E 12               885 	ld	a, #0x12
   03B7 F5                  886 	push	af
   03B8 33                  887 	inc	sp
   03B9 21r75r00            888 	ld	hl, #_arrow_water_v
   03BC E5                  889 	push	hl
   03BD 21r00r00            890 	ld	hl, #_THIS
   03C0 2A                  891 	ld	a, (hl+)
   03C1 66                  892 	ld	h, (hl)
   03C2 6F                  893 	ld	l, a
   03C3 E5                  894 	push	hl
   03C4 CDr00r00            895 	call	_SetSpriteAnim
   03C7 E8 05               896 	add	sp, #5
                            897 ;SpriteArrow.c:133: break;
   03C9 18 20               898 	jr	00112$
                            899 ;SpriteArrow.c:134: case 4:
   03CB                     900 00111$:
                            901 ;SpriteArrow.c:135: data->vy = 2;
   03CB 3E 02               902 	ld	a, #0x02
   03CD 02                  903 	ld	(bc), a
                            904 ;SpriteArrow.c:136: data->vx = 0;
   03CE F8 04               905 	ldhl	sp,	#4
   03D0 2A                  906 	ld	a, (hl+)
   03D1 66                  907 	ld	h, (hl)
   03D2 6F                  908 	ld	l, a
   03D3 7E                  909 	ld	a, (hl)
   03D4 E6 F0               910 	and	a, #0xf0
   03D6 77                  911 	ld	(hl),a
                            912 ;SpriteArrow.c:137: SetSpriteAnim(THIS, arrow_water_g, 18u);	
   03D7 3E 12               913 	ld	a, #0x12
   03D9 F5                  914 	push	af
   03DA 33                  915 	inc	sp
   03DB 21r7Fr00            916 	ld	hl, #_arrow_water_g
   03DE E5                  917 	push	hl
   03DF 21r00r00            918 	ld	hl, #_THIS
   03E2 2A                  919 	ld	a, (hl+)
   03E3 66                  920 	ld	h, (hl)
   03E4 6F                  921 	ld	l, a
   03E5 E5                  922 	push	hl
   03E6 CDr00r00            923 	call	_SetSpriteAnim
   03E9 E8 05               924 	add	sp, #5
                            925 ;SpriteArrow.c:139: }						
   03EB                     926 00112$:
                            927 ;SpriteArrow.c:140: data->type = 0;
   03EB C1                  928 	pop	bc
   03EC C5                  929 	push	bc
   03ED 0A                  930 	ld	a, (bc)
   03EE E6 F0               931 	and	a, #0xf0
   03F0 02                  932 	ld	(bc),a
                            933 ;SpriteArrow.c:141: break;
   03F1 C3r2Ar06            934 	jp	00135$
                            935 ;SpriteArrow.c:142: case 3:
   03F4                     936 00113$:
                            937 ;SpriteArrow.c:143: switch(data->arrowdir){
   03F4 F8 02               938 	ldhl	sp,#(3 - 1)
   03F6 5E                  939 	ld	e, (hl)
   03F7 23                  940 	inc	hl
   03F8 56                  941 	ld	d, (hl)
   03F9 1A                  942 	ld	a,(de)
   03FA FE 01               943 	cp	a, #0x01
   03FC 28 11               944 	jr	Z,00114$
   03FE FE 02               945 	cp	a, #0x02
   0400 28 31               946 	jr	Z,00115$
   0402 FE 03               947 	cp	a, #0x03
   0404 CAr58r04            948 	jp	Z,00116$
   0407 D6 04               949 	sub	a, #0x04
   0409 CAr7Ar04            950 	jp	Z,00117$
   040C C3r9Ar04            951 	jp	00118$
                            952 ;SpriteArrow.c:144: case 1:
   040F                     953 00114$:
                            954 ;SpriteArrow.c:145: data->vy = 0;
   040F AF                  955 	xor	a, a
   0410 02                  956 	ld	(bc), a
                            957 ;SpriteArrow.c:146: data->vx = 1;
   0411 F8 04               958 	ldhl	sp,	#4
   0413 2A                  959 	ld	a, (hl+)
   0414 66                  960 	ld	h, (hl)
   0415 6F                  961 	ld	l, a
   0416 7E                  962 	ld	a, (hl)
   0417 E6 F0               963 	and	a, #0xf0
   0419 F6 01               964 	or	a, #0x01
   041B 77                  965 	ld	(hl),a
                            966 ;SpriteArrow.c:147: SetSpriteAnim(THIS, arrow_stone, 18u);	
   041C 3E 12               967 	ld	a, #0x12
   041E F5                  968 	push	af
   041F 33                  969 	inc	sp
   0420 21r63r00            970 	ld	hl, #_arrow_stone
   0423 E5                  971 	push	hl
   0424 21r00r00            972 	ld	hl, #_THIS
   0427 2A                  973 	ld	a, (hl+)
   0428 66                  974 	ld	h, (hl)
   0429 6F                  975 	ld	l, a
   042A E5                  976 	push	hl
   042B CDr00r00            977 	call	_SetSpriteAnim
   042E E8 05               978 	add	sp, #5
                            979 ;SpriteArrow.c:148: break;
   0430 C3r9Ar04            980 	jp	00118$
                            981 ;SpriteArrow.c:149: case 2:
   0433                     982 00115$:
                            983 ;SpriteArrow.c:150: data->vy = -1;
   0433 3E FF               984 	ld	a, #0xff
   0435 02                  985 	ld	(bc), a
                            986 ;SpriteArrow.c:151: data->vx = 2;
   0436 F8 04               987 	ldhl	sp,	#4
   0438 2A                  988 	ld	a, (hl+)
   0439 66                  989 	ld	h, (hl)
   043A 6F                  990 	ld	l, a
   043B 7E                  991 	ld	a, (hl)
   043C E6 F0               992 	and	a, #0xf0
   043E F6 02               993 	or	a, #0x02
   0440 77                  994 	ld	(hl),a
                            995 ;SpriteArrow.c:152: SetSpriteAnim(THIS, arrow_stone_d, 18u);	
   0441 3E 12               996 	ld	a, #0x12
   0443 F5                  997 	push	af
   0444 33                  998 	inc	sp
   0445 21r6Dr00            999 	ld	hl, #_arrow_stone_d
   0448 E5                 1000 	push	hl
   0449 21r00r00           1001 	ld	hl, #_THIS
   044C 2A                 1002 	ld	a, (hl+)
   044D 66                 1003 	ld	h, (hl)
   044E 6F                 1004 	ld	l, a
   044F E5                 1005 	push	hl
   0450 CDr00r00           1006 	call	_SetSpriteAnim
   0453 E8 05              1007 	add	sp, #5
                           1008 ;SpriteArrow.c:153: break;
   0455 C3r9Ar04           1009 	jp	00118$
                           1010 ;SpriteArrow.c:154: case 3:
   0458                    1011 00116$:
                           1012 ;SpriteArrow.c:155: data->vy = -1;
   0458 3E FF              1013 	ld	a, #0xff
   045A 02                 1014 	ld	(bc), a
                           1015 ;SpriteArrow.c:156: data->vx = 0;
   045B F8 04              1016 	ldhl	sp,	#4
   045D 2A                 1017 	ld	a, (hl+)
   045E 66                 1018 	ld	h, (hl)
   045F 6F                 1019 	ld	l, a
   0460 7E                 1020 	ld	a, (hl)
   0461 E6 F0              1021 	and	a, #0xf0
   0463 77                 1022 	ld	(hl),a
                           1023 ;SpriteArrow.c:157: SetSpriteAnim(THIS, arrow_stone_v, 18u);	
   0464 3E 12              1024 	ld	a, #0x12
   0466 F5                 1025 	push	af
   0467 33                 1026 	inc	sp
   0468 21r77r00           1027 	ld	hl, #_arrow_stone_v
   046B E5                 1028 	push	hl
   046C 21r00r00           1029 	ld	hl, #_THIS
   046F 2A                 1030 	ld	a, (hl+)
   0470 66                 1031 	ld	h, (hl)
   0471 6F                 1032 	ld	l, a
   0472 E5                 1033 	push	hl
   0473 CDr00r00           1034 	call	_SetSpriteAnim
   0476 E8 05              1035 	add	sp, #5
                           1036 ;SpriteArrow.c:158: break;
   0478 18 20              1037 	jr	00118$
                           1038 ;SpriteArrow.c:159: case 4:
   047A                    1039 00117$:
                           1040 ;SpriteArrow.c:160: data->vy = 1;
   047A 3E 01              1041 	ld	a, #0x01
   047C 02                 1042 	ld	(bc), a
                           1043 ;SpriteArrow.c:161: data->vx = 0;
   047D F8 04              1044 	ldhl	sp,	#4
   047F 2A                 1045 	ld	a, (hl+)
   0480 66                 1046 	ld	h, (hl)
   0481 6F                 1047 	ld	l, a
   0482 7E                 1048 	ld	a, (hl)
   0483 E6 F0              1049 	and	a, #0xf0
   0485 77                 1050 	ld	(hl),a
                           1051 ;SpriteArrow.c:162: SetSpriteAnim(THIS, arrow_stone_g, 18u);
   0486 3E 12              1052 	ld	a, #0x12
   0488 F5                 1053 	push	af
   0489 33                 1054 	inc	sp
   048A 21r81r00           1055 	ld	hl, #_arrow_stone_g
   048D E5                 1056 	push	hl
   048E 21r00r00           1057 	ld	hl, #_THIS
   0491 2A                 1058 	ld	a, (hl+)
   0492 66                 1059 	ld	h, (hl)
   0493 6F                 1060 	ld	l, a
   0494 E5                 1061 	push	hl
   0495 CDr00r00           1062 	call	_SetSpriteAnim
   0498 E8 05              1063 	add	sp, #5
                           1064 ;SpriteArrow.c:164: }						
   049A                    1065 00118$:
                           1066 ;SpriteArrow.c:165: data->type = 0;
   049A C1                 1067 	pop	bc
   049B C5                 1068 	push	bc
   049C 0A                 1069 	ld	a, (bc)
   049D E6 F0              1070 	and	a, #0xf0
   049F 02                 1071 	ld	(bc),a
                           1072 ;SpriteArrow.c:166: break;
   04A0 C3r2Ar06           1073 	jp	00135$
                           1074 ;SpriteArrow.c:167: case 4:
   04A3                    1075 00119$:
                           1076 ;SpriteArrow.c:168: switch(data->arrowdir){
   04A3 F8 02              1077 	ldhl	sp,#(3 - 1)
   04A5 5E                 1078 	ld	e, (hl)
   04A6 23                 1079 	inc	hl
   04A7 56                 1080 	ld	d, (hl)
   04A8 1A                 1081 	ld	a,(de)
   04A9 FE 01              1082 	cp	a, #0x01
   04AB 28 11              1083 	jr	Z,00120$
   04AD FE 02              1084 	cp	a, #0x02
   04AF 28 31              1085 	jr	Z,00121$
   04B1 FE 03              1086 	cp	a, #0x03
   04B3 CAr07r05           1087 	jp	Z,00122$
   04B6 D6 04              1088 	sub	a, #0x04
   04B8 CAr29r05           1089 	jp	Z,00123$
   04BB C3r49r05           1090 	jp	00124$
                           1091 ;SpriteArrow.c:169: case 1:
   04BE                    1092 00120$:
                           1093 ;SpriteArrow.c:170: data->vy = 0;
   04BE AF                 1094 	xor	a, a
   04BF 02                 1095 	ld	(bc), a
                           1096 ;SpriteArrow.c:171: data->vx = 3;
   04C0 F8 04              1097 	ldhl	sp,	#4
   04C2 2A                 1098 	ld	a, (hl+)
   04C3 66                 1099 	ld	h, (hl)
   04C4 6F                 1100 	ld	l, a
   04C5 7E                 1101 	ld	a, (hl)
   04C6 E6 F0              1102 	and	a, #0xf0
   04C8 F6 03              1103 	or	a, #0x03
   04CA 77                 1104 	ld	(hl),a
                           1105 ;SpriteArrow.c:172: SetSpriteAnim(THIS, arrow_blast, 18u);	
   04CB 3E 12              1106 	ld	a, #0x12
   04CD F5                 1107 	push	af
   04CE 33                 1108 	inc	sp
   04CF 21r65r00           1109 	ld	hl, #_arrow_blast
   04D2 E5                 1110 	push	hl
   04D3 21r00r00           1111 	ld	hl, #_THIS
   04D6 2A                 1112 	ld	a, (hl+)
   04D7 66                 1113 	ld	h, (hl)
   04D8 6F                 1114 	ld	l, a
   04D9 E5                 1115 	push	hl
   04DA CDr00r00           1116 	call	_SetSpriteAnim
   04DD E8 05              1117 	add	sp, #5
                           1118 ;SpriteArrow.c:173: break;
   04DF C3r49r05           1119 	jp	00124$
                           1120 ;SpriteArrow.c:174: case 2:
   04E2                    1121 00121$:
                           1122 ;SpriteArrow.c:175: data->vy = -2;
   04E2 3E FE              1123 	ld	a, #0xfe
   04E4 02                 1124 	ld	(bc), a
                           1125 ;SpriteArrow.c:176: data->vx = 3;
   04E5 F8 04              1126 	ldhl	sp,	#4
   04E7 2A                 1127 	ld	a, (hl+)
   04E8 66                 1128 	ld	h, (hl)
   04E9 6F                 1129 	ld	l, a
   04EA 7E                 1130 	ld	a, (hl)
   04EB E6 F0              1131 	and	a, #0xf0
   04ED F6 03              1132 	or	a, #0x03
   04EF 77                 1133 	ld	(hl),a
                           1134 ;SpriteArrow.c:177: SetSpriteAnim(THIS, arrow_blast_d, 18u);	
   04F0 3E 12              1135 	ld	a, #0x12
   04F2 F5                 1136 	push	af
   04F3 33                 1137 	inc	sp
   04F4 21r6Fr00           1138 	ld	hl, #_arrow_blast_d
   04F7 E5                 1139 	push	hl
   04F8 21r00r00           1140 	ld	hl, #_THIS
   04FB 2A                 1141 	ld	a, (hl+)
   04FC 66                 1142 	ld	h, (hl)
   04FD 6F                 1143 	ld	l, a
   04FE E5                 1144 	push	hl
   04FF CDr00r00           1145 	call	_SetSpriteAnim
   0502 E8 05              1146 	add	sp, #5
                           1147 ;SpriteArrow.c:178: break;
   0504 C3r49r05           1148 	jp	00124$
                           1149 ;SpriteArrow.c:179: case 3:
   0507                    1150 00122$:
                           1151 ;SpriteArrow.c:180: data->vy = -3;
   0507 3E FD              1152 	ld	a, #0xfd
   0509 02                 1153 	ld	(bc), a
                           1154 ;SpriteArrow.c:181: data->vx = 0;
   050A F8 04              1155 	ldhl	sp,	#4
   050C 2A                 1156 	ld	a, (hl+)
   050D 66                 1157 	ld	h, (hl)
   050E 6F                 1158 	ld	l, a
   050F 7E                 1159 	ld	a, (hl)
   0510 E6 F0              1160 	and	a, #0xf0
   0512 77                 1161 	ld	(hl),a
                           1162 ;SpriteArrow.c:182: SetSpriteAnim(THIS, arrow_blast_v, 18u);	
   0513 3E 12              1163 	ld	a, #0x12
   0515 F5                 1164 	push	af
   0516 33                 1165 	inc	sp
   0517 21r79r00           1166 	ld	hl, #_arrow_blast_v
   051A E5                 1167 	push	hl
   051B 21r00r00           1168 	ld	hl, #_THIS
   051E 2A                 1169 	ld	a, (hl+)
   051F 66                 1170 	ld	h, (hl)
   0520 6F                 1171 	ld	l, a
   0521 E5                 1172 	push	hl
   0522 CDr00r00           1173 	call	_SetSpriteAnim
   0525 E8 05              1174 	add	sp, #5
                           1175 ;SpriteArrow.c:183: break;
   0527 18 20              1176 	jr	00124$
                           1177 ;SpriteArrow.c:184: case 4:
   0529                    1178 00123$:
                           1179 ;SpriteArrow.c:185: data->vy = 3;
   0529 3E 03              1180 	ld	a, #0x03
   052B 02                 1181 	ld	(bc), a
                           1182 ;SpriteArrow.c:186: data->vx = 0;
   052C F8 04              1183 	ldhl	sp,	#4
   052E 2A                 1184 	ld	a, (hl+)
   052F 66                 1185 	ld	h, (hl)
   0530 6F                 1186 	ld	l, a
   0531 7E                 1187 	ld	a, (hl)
   0532 E6 F0              1188 	and	a, #0xf0
   0534 77                 1189 	ld	(hl),a
                           1190 ;SpriteArrow.c:187: SetSpriteAnim(THIS, arrow_blast_g, 18u);	
   0535 3E 12              1191 	ld	a, #0x12
   0537 F5                 1192 	push	af
   0538 33                 1193 	inc	sp
   0539 21r83r00           1194 	ld	hl, #_arrow_blast_g
   053C E5                 1195 	push	hl
   053D 21r00r00           1196 	ld	hl, #_THIS
   0540 2A                 1197 	ld	a, (hl+)
   0541 66                 1198 	ld	h, (hl)
   0542 6F                 1199 	ld	l, a
   0543 E5                 1200 	push	hl
   0544 CDr00r00           1201 	call	_SetSpriteAnim
   0547 E8 05              1202 	add	sp, #5
                           1203 ;SpriteArrow.c:189: }						
   0549                    1204 00124$:
                           1205 ;SpriteArrow.c:190: data->type = 0;
   0549 C1                 1206 	pop	bc
   054A C5                 1207 	push	bc
   054B 0A                 1208 	ld	a, (bc)
   054C E6 F0              1209 	and	a, #0xf0
   054E 02                 1210 	ld	(bc),a
                           1211 ;SpriteArrow.c:191: break;
   054F C3r2Ar06           1212 	jp	00135$
                           1213 ;SpriteArrow.c:192: case 5:
   0552                    1214 00125$:
                           1215 ;SpriteArrow.c:193: switch(data->arrowdir){
   0552 F8 02              1216 	ldhl	sp,#(3 - 1)
   0554 5E                 1217 	ld	e, (hl)
   0555 23                 1218 	inc	hl
   0556 56                 1219 	ld	d, (hl)
   0557 1A                 1220 	ld	a,(de)
   0558 FE 01              1221 	cp	a, #0x01
   055A 28 11              1222 	jr	Z,00126$
   055C FE 02              1223 	cp	a, #0x02
   055E 28 31              1224 	jr	Z,00127$
   0560 FE 03              1225 	cp	a, #0x03
   0562 CArB6r05           1226 	jp	Z,00128$
   0565 D6 04              1227 	sub	a, #0x04
   0567 CArD8r05           1228 	jp	Z,00129$
   056A C3rF8r05           1229 	jp	00130$
                           1230 ;SpriteArrow.c:194: case 1:
   056D                    1231 00126$:
                           1232 ;SpriteArrow.c:195: data->vy = 0;
   056D AF                 1233 	xor	a, a
   056E 02                 1234 	ld	(bc), a
                           1235 ;SpriteArrow.c:196: data->vx = 2;
   056F F8 04              1236 	ldhl	sp,	#4
   0571 2A                 1237 	ld	a, (hl+)
   0572 66                 1238 	ld	h, (hl)
   0573 6F                 1239 	ld	l, a
   0574 7E                 1240 	ld	a, (hl)
   0575 E6 F0              1241 	and	a, #0xf0
   0577 F6 02              1242 	or	a, #0x02
   0579 77                 1243 	ld	(hl),a
                           1244 ;SpriteArrow.c:197: SetSpriteAnim(THIS, arrow_fire, 18u);	
   057A 3E 12              1245 	ld	a, #0x12
   057C F5                 1246 	push	af
   057D 33                 1247 	inc	sp
   057E 21r67r00           1248 	ld	hl, #_arrow_fire
   0581 E5                 1249 	push	hl
   0582 21r00r00           1250 	ld	hl, #_THIS
   0585 2A                 1251 	ld	a, (hl+)
   0586 66                 1252 	ld	h, (hl)
   0587 6F                 1253 	ld	l, a
   0588 E5                 1254 	push	hl
   0589 CDr00r00           1255 	call	_SetSpriteAnim
   058C E8 05              1256 	add	sp, #5
                           1257 ;SpriteArrow.c:198: break;
   058E C3rF8r05           1258 	jp	00130$
                           1259 ;SpriteArrow.c:199: case 2:
   0591                    1260 00127$:
                           1261 ;SpriteArrow.c:200: data->vy = -1;
   0591 3E FF              1262 	ld	a, #0xff
   0593 02                 1263 	ld	(bc), a
                           1264 ;SpriteArrow.c:201: data->vx = 2;
   0594 F8 04              1265 	ldhl	sp,	#4
   0596 2A                 1266 	ld	a, (hl+)
   0597 66                 1267 	ld	h, (hl)
   0598 6F                 1268 	ld	l, a
   0599 7E                 1269 	ld	a, (hl)
   059A E6 F0              1270 	and	a, #0xf0
   059C F6 02              1271 	or	a, #0x02
   059E 77                 1272 	ld	(hl),a
                           1273 ;SpriteArrow.c:202: SetSpriteAnim(THIS, arrow_fire_d, 18u);	
   059F 3E 12              1274 	ld	a, #0x12
   05A1 F5                 1275 	push	af
   05A2 33                 1276 	inc	sp
   05A3 21r71r00           1277 	ld	hl, #_arrow_fire_d
   05A6 E5                 1278 	push	hl
   05A7 21r00r00           1279 	ld	hl, #_THIS
   05AA 2A                 1280 	ld	a, (hl+)
   05AB 66                 1281 	ld	h, (hl)
   05AC 6F                 1282 	ld	l, a
   05AD E5                 1283 	push	hl
   05AE CDr00r00           1284 	call	_SetSpriteAnim
   05B1 E8 05              1285 	add	sp, #5
                           1286 ;SpriteArrow.c:203: break;
   05B3 C3rF8r05           1287 	jp	00130$
                           1288 ;SpriteArrow.c:204: case 3:
   05B6                    1289 00128$:
                           1290 ;SpriteArrow.c:205: data->vy = -2;
   05B6 3E FE              1291 	ld	a, #0xfe
   05B8 02                 1292 	ld	(bc), a
                           1293 ;SpriteArrow.c:206: data->vx = 0;
   05B9 F8 04              1294 	ldhl	sp,	#4
   05BB 2A                 1295 	ld	a, (hl+)
   05BC 66                 1296 	ld	h, (hl)
   05BD 6F                 1297 	ld	l, a
   05BE 7E                 1298 	ld	a, (hl)
   05BF E6 F0              1299 	and	a, #0xf0
   05C1 77                 1300 	ld	(hl),a
                           1301 ;SpriteArrow.c:207: SetSpriteAnim(THIS, arrow_fire_v, 18u);	
   05C2 3E 12              1302 	ld	a, #0x12
   05C4 F5                 1303 	push	af
   05C5 33                 1304 	inc	sp
   05C6 21r7Br00           1305 	ld	hl, #_arrow_fire_v
   05C9 E5                 1306 	push	hl
   05CA 21r00r00           1307 	ld	hl, #_THIS
   05CD 2A                 1308 	ld	a, (hl+)
   05CE 66                 1309 	ld	h, (hl)
   05CF 6F                 1310 	ld	l, a
   05D0 E5                 1311 	push	hl
   05D1 CDr00r00           1312 	call	_SetSpriteAnim
   05D4 E8 05              1313 	add	sp, #5
                           1314 ;SpriteArrow.c:208: break;
   05D6 18 20              1315 	jr	00130$
                           1316 ;SpriteArrow.c:209: case 4:
   05D8                    1317 00129$:
                           1318 ;SpriteArrow.c:210: data->vy = 2;
   05D8 3E 02              1319 	ld	a, #0x02
   05DA 02                 1320 	ld	(bc), a
                           1321 ;SpriteArrow.c:211: data->vx = 0;
   05DB F8 04              1322 	ldhl	sp,	#4
   05DD 2A                 1323 	ld	a, (hl+)
   05DE 66                 1324 	ld	h, (hl)
   05DF 6F                 1325 	ld	l, a
   05E0 7E                 1326 	ld	a, (hl)
   05E1 E6 F0              1327 	and	a, #0xf0
   05E3 77                 1328 	ld	(hl),a
                           1329 ;SpriteArrow.c:212: SetSpriteAnim(THIS, arrow_fire_g, 18u);	
   05E4 3E 12              1330 	ld	a, #0x12
   05E6 F5                 1331 	push	af
   05E7 33                 1332 	inc	sp
   05E8 21r85r00           1333 	ld	hl, #_arrow_fire_g
   05EB E5                 1334 	push	hl
   05EC 21r00r00           1335 	ld	hl, #_THIS
   05EF 2A                 1336 	ld	a, (hl+)
   05F0 66                 1337 	ld	h, (hl)
   05F1 6F                 1338 	ld	l, a
   05F2 E5                 1339 	push	hl
   05F3 CDr00r00           1340 	call	_SetSpriteAnim
   05F6 E8 05              1341 	add	sp, #5
                           1342 ;SpriteArrow.c:214: }						
   05F8                    1343 00130$:
                           1344 ;SpriteArrow.c:215: data->type = 0;
   05F8 C1                 1345 	pop	bc
   05F9 C5                 1346 	push	bc
   05FA 0A                 1347 	ld	a, (bc)
   05FB E6 F0              1348 	and	a, #0xf0
   05FD 02                 1349 	ld	(bc),a
                           1350 ;SpriteArrow.c:216: break;
   05FE C3r2Ar06           1351 	jp	00135$
                           1352 ;SpriteArrow.c:217: case 6:
   0601                    1353 00131$:
                           1354 ;SpriteArrow.c:218: switch(data->arrowdir){
   0601 F8 02              1355 	ldhl	sp,#(3 - 1)
   0603 5E                 1356 	ld	e, (hl)
   0604 23                 1357 	inc	hl
   0605 56                 1358 	ld	d, (hl)
   0606 1A                 1359 	ld	a,(de)
   0607 3D                 1360 	dec	a
   0608 20 20              1361 	jr	NZ,00135$
                           1362 ;SpriteArrow.c:220: data->vy = 0;
   060A AF                 1363 	xor	a, a
   060B 02                 1364 	ld	(bc), a
                           1365 ;SpriteArrow.c:221: data->vx = 2;
   060C 23                 1366 	inc	hl
   060D 2A                 1367 	ld	a, (hl+)
   060E 66                 1368 	ld	h, (hl)
   060F 6F                 1369 	ld	l, a
   0610 7E                 1370 	ld	a, (hl)
   0611 E6 F0              1371 	and	a, #0xf0
   0613 F6 02              1372 	or	a, #0x02
   0615 77                 1373 	ld	(hl),a
                           1374 ;SpriteArrow.c:222: SetSpriteAnim(THIS, spine, 18u);	
   0616 3E 12              1375 	ld	a, #0x12
   0618 F5                 1376 	push	af
   0619 33                 1377 	inc	sp
   061A 21r87r00           1378 	ld	hl, #_spine
   061D E5                 1379 	push	hl
   061E 21r00r00           1380 	ld	hl, #_THIS
   0621 2A                 1381 	ld	a, (hl+)
   0622 66                 1382 	ld	h, (hl)
   0623 6F                 1383 	ld	l, a
   0624 E5                 1384 	push	hl
   0625 CDr00r00           1385 	call	_SetSpriteAnim
   0628 E8 05              1386 	add	sp, #5
                           1387 ;SpriteArrow.c:227: }
   062A                    1388 00135$:
                           1389 ;SpriteArrow.c:228: }
   062A E8 06              1390 	add	sp, #6
   062C C9                 1391 	ret
                           1392 ;SpriteArrow.c:230: void CheckCollisionArrowTile() {	
                           1393 ;	---------------------------------
                           1394 ; Function CheckCollisionArrowTile
                           1395 ; ---------------------------------
   062D                    1396 _CheckCollisionArrowTile::
                           1397 ;SpriteArrow.c:231: if (tile_a_collision < 18u & tile_a_collision > 9u){
   062D 21r02r00           1398 	ld	hl, #_tile_a_collision
   0630 7E                 1399 	ld	a, (hl)
   0631 D6 12              1400 	sub	a, #0x12
   0633 3E 00              1401 	ld	a, #0x00
   0635 17                 1402 	rla
   0636 4F                 1403 	ld	c, a
   0637 3E 09              1404 	ld	a, #0x09
   0639 96                 1405 	sub	a, (hl)
   063A 3E 00              1406 	ld	a, #0x00
   063C 17                 1407 	rla
   063D A1                 1408 	and	a,c
   063E 28 03              1409 	jr	Z,00102$
                           1410 ;SpriteArrow.c:232: RedirectArrow();
   0640 C3r50r06           1411 	jp	_RedirectArrow
   0643                    1412 00102$:
                           1413 ;SpriteArrow.c:234: SpriteManagerRemove(THIS_IDX);
   0643 21r00r00           1414 	ld	hl, #_THIS_IDX
   0646 4E                 1415 	ld	c, (hl)
   0647 06 00              1416 	ld	b, #0x00
   0649 C5                 1417 	push	bc
   064A CDr00r00           1418 	call	_SpriteManagerRemove
   064D E8 02              1419 	add	sp, #2
                           1420 ;SpriteArrow.c:236: }
   064F C9                 1421 	ret
                           1422 ;SpriteArrow.c:238: void RedirectArrow(){
                           1423 ;	---------------------------------
                           1424 ; Function RedirectArrow
                           1425 ; ---------------------------------
   0650                    1426 _RedirectArrow::
   0650 E8 FB              1427 	add	sp, #-5
                           1428 ;SpriteArrow.c:239: struct ArrowInfo* data = (struct ArrowInfo*)THIS->custom_data;
   0652 21r01r00           1429 	ld	hl, #_THIS + 1
   0655 2B                 1430 	dec	hl
   0656 4E                 1431 	ld	c, (hl)
   0657 23                 1432 	inc	hl
   0658 46                 1433 	ld	b, (hl)
   0659 21 19 00           1434 	ld	hl, #0x0019
   065C 09                 1435 	add	hl, bc
   065D 7D                 1436 	ld	a, l
   065E 54                 1437 	ld	d, h
   065F F8 03              1438 	ldhl	sp,	#3
   0661 22                 1439 	ld	(hl+), a
   0662 72                 1440 	ld	(hl), d
   0663 2B                 1441 	dec	hl
   0664 2A                 1442 	ld	a, (hl+)
   0665 5E                 1443 	ld	e, (hl)
   0666 F8 00              1444 	ldhl	sp,	#0
   0668 22                 1445 	ld	(hl+), a
   0669 73                 1446 	ld	(hl), e
                           1447 ;SpriteArrow.c:240: switch(tile_a_collision) {
   066A 21r02r00           1448 	ld	hl, #_tile_a_collision
   066D 7E                 1449 	ld	a, (hl)
   066E D6 0A              1450 	sub	a, #0x0a
   0670 DAr08r09           1451 	jp	C, 00109$
   0673 3E 11              1452 	ld	a, #0x11
   0675 96                 1453 	sub	a, (hl)
   0676 DAr08r09           1454 	jp	C, 00109$
   0679 7E                 1455 	ld	a, (hl)
   067A C6 F6              1456 	add	a, #0xf6
   067C F8 02              1457 	ldhl	sp,	#2
   067E 77                 1458 	ld	(hl), a
                           1459 ;SpriteArrow.c:242: data->arrowdir = 4;
   067F D1                 1460 	pop	de
   0680 D5                 1461 	push	de
   0681 21 03 00           1462 	ld	hl, #0x0003
   0684 19                 1463 	add	hl, de
   0685 7D                 1464 	ld	a, l
   0686 54                 1465 	ld	d, h
   0687 F8 03              1466 	ldhl	sp,	#3
   0689 22                 1467 	ld	(hl+), a
   068A 72                 1468 	ld	(hl), d
                           1469 ;SpriteArrow.c:260: SPRITE_SET_VMIRROR(THIS);
   068B 21 0C 00           1470 	ld	hl, #0x000c
   068E 09                 1471 	add	hl, bc
   068F 4D                 1472 	ld	c, l
   0690 44                 1473 	ld	b, h
                           1474 ;SpriteArrow.c:240: switch(tile_a_collision) {
   0691 F8 02              1475 	ldhl	sp,	#2
   0693 5E                 1476 	ld	e, (hl)
   0694 16 00              1477 	ld	d, #0x00
   0696 21r9Dr06           1478 	ld	hl, #00122$
   0699 19                 1479 	add	hl, de
   069A 19                 1480 	add	hl, de
   069B 19                 1481 	add	hl, de
   069C E9                 1482 	jp	(hl)
   069D                    1483 00122$:
   069D C3rB5r06           1484 	jp	00101$
   06A0 C3r09r07           1485 	jp	00102$
   06A3 C3r5Br07           1486 	jp	00103$
   06A6 C3r8Ar07           1487 	jp	00104$
   06A9 C3rBDr07           1488 	jp	00105$
   06AC C3rF4r07           1489 	jp	00106$
   06AF C3r4Fr08           1490 	jp	00107$
   06B2 C3rABr08           1491 	jp	00108$
                           1492 ;SpriteArrow.c:241: case 10u: //da SX a GIU
   06B5                    1493 00101$:
                           1494 ;SpriteArrow.c:242: data->arrowdir = 4;
   06B5 F8 03              1495 	ldhl	sp,	#3
   06B7 2A                 1496 	ld	a, (hl+)
   06B8 66                 1497 	ld	h, (hl)
   06B9 6F                 1498 	ld	l, a
   06BA 36 04              1499 	ld	(hl), #0x04
                           1500 ;SpriteArrow.c:239: struct ArrowInfo* data = (struct ArrowInfo*)THIS->custom_data;
   06BC 21r01r00           1501 	ld	hl, #_THIS + 1
   06BF 2B                 1502 	dec	hl
   06C0 4E                 1503 	ld	c, (hl)
   06C1 23                 1504 	inc	hl
   06C2 46                 1505 	ld	b, (hl)
                           1506 ;SpriteArrow.c:243: THIS->x += 4;
   06C3 21 08 00           1507 	ld	hl, #0x0008
   06C6 09                 1508 	add	hl, bc
   06C7 7D                 1509 	ld	a, l
   06C8 54                 1510 	ld	d, h
   06C9 F8 03              1511 	ldhl	sp,	#3
   06CB 22                 1512 	ld	(hl+), a
   06CC 72                 1513 	ld	(hl), d
   06CD 2B                 1514 	dec	hl
   06CE 5E                 1515 	ld	e, (hl)
   06CF 23                 1516 	inc	hl
   06D0 56                 1517 	ld	d, (hl)
   06D1 1A                 1518 	ld	a,(de)
   06D2 4F                 1519 	ld	c, a
   06D3 13                 1520 	inc	de
   06D4 1A                 1521 	ld	a,(de)
   06D5 47                 1522 	ld	b, a
   06D6 03                 1523 	inc	bc
   06D7 03                 1524 	inc	bc
   06D8 03                 1525 	inc	bc
   06D9 03                 1526 	inc	bc
   06DA 2B                 1527 	dec	hl
   06DB 2A                 1528 	ld	a, (hl+)
   06DC 66                 1529 	ld	h, (hl)
   06DD 6F                 1530 	ld	l, a
   06DE 71                 1531 	ld	(hl), c
   06DF 23                 1532 	inc	hl
   06E0 70                 1533 	ld	(hl), b
                           1534 ;SpriteArrow.c:239: struct ArrowInfo* data = (struct ArrowInfo*)THIS->custom_data;
   06E1 21r01r00           1535 	ld	hl, #_THIS + 1
   06E4 2B                 1536 	dec	hl
   06E5 4E                 1537 	ld	c, (hl)
   06E6 23                 1538 	inc	hl
   06E7 46                 1539 	ld	b, (hl)
                           1540 ;SpriteArrow.c:244: THIS->y += 4;
   06E8 21 0A 00           1541 	ld	hl, #0x000a
   06EB 09                 1542 	add	hl, bc
   06EC 7D                 1543 	ld	a, l
   06ED 54                 1544 	ld	d, h
   06EE F8 03              1545 	ldhl	sp,	#3
   06F0 22                 1546 	ld	(hl+), a
   06F1 72                 1547 	ld	(hl), d
   06F2 2B                 1548 	dec	hl
   06F3 5E                 1549 	ld	e, (hl)
   06F4 23                 1550 	inc	hl
   06F5 56                 1551 	ld	d, (hl)
   06F6 1A                 1552 	ld	a,(de)
   06F7 4F                 1553 	ld	c, a
   06F8 13                 1554 	inc	de
   06F9 1A                 1555 	ld	a,(de)
   06FA 47                 1556 	ld	b, a
   06FB 03                 1557 	inc	bc
   06FC 03                 1558 	inc	bc
   06FD 03                 1559 	inc	bc
   06FE 03                 1560 	inc	bc
   06FF 2B                 1561 	dec	hl
   0700 2A                 1562 	ld	a, (hl+)
   0701 66                 1563 	ld	h, (hl)
   0702 6F                 1564 	ld	l, a
   0703 71                 1565 	ld	(hl), c
   0704 23                 1566 	inc	hl
   0705 70                 1567 	ld	(hl), b
                           1568 ;SpriteArrow.c:245: break;
   0706 C3r08r09           1569 	jp	00109$
                           1570 ;SpriteArrow.c:246: case 11u: //da DX a GIU
   0709                    1571 00102$:
                           1572 ;SpriteArrow.c:247: data->arrowdir = 4;
   0709 F8 03              1573 	ldhl	sp,	#3
   070B 2A                 1574 	ld	a, (hl+)
   070C 66                 1575 	ld	h, (hl)
   070D 6F                 1576 	ld	l, a
   070E 36 04              1577 	ld	(hl), #0x04
                           1578 ;SpriteArrow.c:239: struct ArrowInfo* data = (struct ArrowInfo*)THIS->custom_data;
   0710 21r01r00           1579 	ld	hl, #_THIS + 1
   0713 2B                 1580 	dec	hl
   0714 4E                 1581 	ld	c, (hl)
   0715 23                 1582 	inc	hl
   0716 46                 1583 	ld	b, (hl)
                           1584 ;SpriteArrow.c:243: THIS->x += 4;
   0717 21 08 00           1585 	ld	hl, #0x0008
   071A 09                 1586 	add	hl, bc
   071B 7D                 1587 	ld	a, l
   071C 54                 1588 	ld	d, h
   071D F8 03              1589 	ldhl	sp,	#3
   071F 22                 1590 	ld	(hl+), a
   0720 72                 1591 	ld	(hl), d
                           1592 ;SpriteArrow.c:248: THIS->x -= 2;
   0721 2B                 1593 	dec	hl
   0722 5E                 1594 	ld	e, (hl)
   0723 23                 1595 	inc	hl
   0724 56                 1596 	ld	d, (hl)
   0725 1A                 1597 	ld	a,(de)
   0726 4F                 1598 	ld	c, a
   0727 13                 1599 	inc	de
   0728 1A                 1600 	ld	a,(de)
   0729 47                 1601 	ld	b, a
   072A 0B                 1602 	dec	bc
   072B 0B                 1603 	dec	bc
   072C 2B                 1604 	dec	hl
   072D 2A                 1605 	ld	a, (hl+)
   072E 66                 1606 	ld	h, (hl)
   072F 6F                 1607 	ld	l, a
   0730 71                 1608 	ld	(hl), c
   0731 23                 1609 	inc	hl
   0732 70                 1610 	ld	(hl), b
                           1611 ;SpriteArrow.c:239: struct ArrowInfo* data = (struct ArrowInfo*)THIS->custom_data;
   0733 21r01r00           1612 	ld	hl, #_THIS + 1
   0736 2B                 1613 	dec	hl
   0737 4E                 1614 	ld	c, (hl)
   0738 23                 1615 	inc	hl
   0739 46                 1616 	ld	b, (hl)
                           1617 ;SpriteArrow.c:244: THIS->y += 4;
   073A 21 0A 00           1618 	ld	hl, #0x000a
   073D 09                 1619 	add	hl, bc
   073E 7D                 1620 	ld	a, l
   073F 54                 1621 	ld	d, h
   0740 F8 03              1622 	ldhl	sp,	#3
   0742 22                 1623 	ld	(hl+), a
   0743 72                 1624 	ld	(hl), d
                           1625 ;SpriteArrow.c:249: THIS->y += 4;
   0744 2B                 1626 	dec	hl
   0745 5E                 1627 	ld	e, (hl)
   0746 23                 1628 	inc	hl
   0747 56                 1629 	ld	d, (hl)
   0748 1A                 1630 	ld	a,(de)
   0749 4F                 1631 	ld	c, a
   074A 13                 1632 	inc	de
   074B 1A                 1633 	ld	a,(de)
   074C 47                 1634 	ld	b, a
   074D 03                 1635 	inc	bc
   074E 03                 1636 	inc	bc
   074F 03                 1637 	inc	bc
   0750 03                 1638 	inc	bc
   0751 2B                 1639 	dec	hl
   0752 2A                 1640 	ld	a, (hl+)
   0753 66                 1641 	ld	h, (hl)
   0754 6F                 1642 	ld	l, a
   0755 71                 1643 	ld	(hl), c
   0756 23                 1644 	inc	hl
   0757 70                 1645 	ld	(hl), b
                           1646 ;SpriteArrow.c:250: break;
   0758 C3r08r09           1647 	jp	00109$
                           1648 ;SpriteArrow.c:251: case 12u: //da SX a SU
   075B                    1649 00103$:
                           1650 ;SpriteArrow.c:252: data->arrowdir = 3;
   075B F8 03              1651 	ldhl	sp,	#3
   075D 2A                 1652 	ld	a, (hl+)
   075E 66                 1653 	ld	h, (hl)
   075F 6F                 1654 	ld	l, a
   0760 36 03              1655 	ld	(hl), #0x03
                           1656 ;SpriteArrow.c:239: struct ArrowInfo* data = (struct ArrowInfo*)THIS->custom_data;
   0762 21r01r00           1657 	ld	hl, #_THIS + 1
   0765 2B                 1658 	dec	hl
   0766 4E                 1659 	ld	c, (hl)
   0767 23                 1660 	inc	hl
   0768 46                 1661 	ld	b, (hl)
                           1662 ;SpriteArrow.c:243: THIS->x += 4;
   0769 21 08 00           1663 	ld	hl, #0x0008
   076C 09                 1664 	add	hl, bc
   076D 7D                 1665 	ld	a, l
   076E 54                 1666 	ld	d, h
   076F F8 03              1667 	ldhl	sp,	#3
   0771 22                 1668 	ld	(hl+), a
   0772 72                 1669 	ld	(hl), d
                           1670 ;SpriteArrow.c:253: THIS->x += 4;
   0773 2B                 1671 	dec	hl
   0774 5E                 1672 	ld	e, (hl)
   0775 23                 1673 	inc	hl
   0776 56                 1674 	ld	d, (hl)
   0777 1A                 1675 	ld	a,(de)
   0778 4F                 1676 	ld	c, a
   0779 13                 1677 	inc	de
   077A 1A                 1678 	ld	a,(de)
   077B 47                 1679 	ld	b, a
   077C 03                 1680 	inc	bc
   077D 03                 1681 	inc	bc
   077E 03                 1682 	inc	bc
   077F 03                 1683 	inc	bc
   0780 2B                 1684 	dec	hl
   0781 2A                 1685 	ld	a, (hl+)
   0782 66                 1686 	ld	h, (hl)
   0783 6F                 1687 	ld	l, a
   0784 71                 1688 	ld	(hl), c
   0785 23                 1689 	inc	hl
   0786 70                 1690 	ld	(hl), b
                           1691 ;SpriteArrow.c:254: break;
   0787 C3r08r09           1692 	jp	00109$
                           1693 ;SpriteArrow.c:255: case 13u: // da DX a SU
   078A                    1694 00104$:
                           1695 ;SpriteArrow.c:256: data->arrowdir = 3;
   078A F8 03              1696 	ldhl	sp,	#3
   078C 2A                 1697 	ld	a, (hl+)
   078D 66                 1698 	ld	h, (hl)
   078E 6F                 1699 	ld	l, a
   078F 36 03              1700 	ld	(hl), #0x03
                           1701 ;SpriteArrow.c:239: struct ArrowInfo* data = (struct ArrowInfo*)THIS->custom_data;
   0791 21r01r00           1702 	ld	hl, #_THIS + 1
   0794 2B                 1703 	dec	hl
   0795 4E                 1704 	ld	c, (hl)
   0796 23                 1705 	inc	hl
   0797 46                 1706 	ld	b, (hl)
                           1707 ;SpriteArrow.c:243: THIS->x += 4;
   0798 21 08 00           1708 	ld	hl, #0x0008
   079B 09                 1709 	add	hl, bc
   079C 7D                 1710 	ld	a, l
   079D 54                 1711 	ld	d, h
   079E F8 03              1712 	ldhl	sp,	#3
   07A0 22                 1713 	ld	(hl+), a
   07A1 72                 1714 	ld	(hl), d
                           1715 ;SpriteArrow.c:257: THIS->x -= 4;
   07A2 2B                 1716 	dec	hl
   07A3 5E                 1717 	ld	e, (hl)
   07A4 23                 1718 	inc	hl
   07A5 56                 1719 	ld	d, (hl)
   07A6 1A                 1720 	ld	a,(de)
   07A7 4F                 1721 	ld	c, a
   07A8 13                 1722 	inc	de
   07A9 1A                 1723 	ld	a,(de)
   07AA 47                 1724 	ld	b, a
   07AB 79                 1725 	ld	a, c
   07AC C6 FC              1726 	add	a, #0xfc
   07AE 4F                 1727 	ld	c, a
   07AF 78                 1728 	ld	a, b
   07B0 CE FF              1729 	adc	a, #0xff
   07B2 47                 1730 	ld	b, a
   07B3 2B                 1731 	dec	hl
   07B4 2A                 1732 	ld	a, (hl+)
   07B5 66                 1733 	ld	h, (hl)
   07B6 6F                 1734 	ld	l, a
   07B7 71                 1735 	ld	(hl), c
   07B8 23                 1736 	inc	hl
   07B9 70                 1737 	ld	(hl), b
                           1738 ;SpriteArrow.c:258: break;
   07BA C3r08r09           1739 	jp	00109$
                           1740 ;SpriteArrow.c:259: case 14u: //da SU a SX
   07BD                    1741 00105$:
                           1742 ;SpriteArrow.c:260: SPRITE_SET_VMIRROR(THIS);
   07BD 0A                 1743 	ld	a, (bc)
   07BE CB EF              1744 	set	5, a
   07C0 02                 1745 	ld	(bc), a
                           1746 ;SpriteArrow.c:261: data->arrowdir = 1;
   07C1 F8 03              1747 	ldhl	sp,	#3
   07C3 2A                 1748 	ld	a, (hl+)
   07C4 66                 1749 	ld	h, (hl)
   07C5 6F                 1750 	ld	l, a
   07C6 36 01              1751 	ld	(hl), #0x01
                           1752 ;SpriteArrow.c:239: struct ArrowInfo* data = (struct ArrowInfo*)THIS->custom_data;
   07C8 21r01r00           1753 	ld	hl, #_THIS + 1
   07CB 2B                 1754 	dec	hl
   07CC 4E                 1755 	ld	c, (hl)
   07CD 23                 1756 	inc	hl
   07CE 46                 1757 	ld	b, (hl)
                           1758 ;SpriteArrow.c:243: THIS->x += 4;
   07CF 21 08 00           1759 	ld	hl, #0x0008
   07D2 09                 1760 	add	hl, bc
   07D3 7D                 1761 	ld	a, l
   07D4 54                 1762 	ld	d, h
   07D5 F8 03              1763 	ldhl	sp,	#3
   07D7 22                 1764 	ld	(hl+), a
   07D8 72                 1765 	ld	(hl), d
                           1766 ;SpriteArrow.c:262: THIS->x -= 4;
   07D9 2B                 1767 	dec	hl
   07DA 5E                 1768 	ld	e, (hl)
   07DB 23                 1769 	inc	hl
   07DC 56                 1770 	ld	d, (hl)
   07DD 1A                 1771 	ld	a,(de)
   07DE 4F                 1772 	ld	c, a
   07DF 13                 1773 	inc	de
   07E0 1A                 1774 	ld	a,(de)
   07E1 47                 1775 	ld	b, a
   07E2 79                 1776 	ld	a, c
   07E3 C6 FC              1777 	add	a, #0xfc
   07E5 4F                 1778 	ld	c, a
   07E6 78                 1779 	ld	a, b
   07E7 CE FF              1780 	adc	a, #0xff
   07E9 47                 1781 	ld	b, a
   07EA 2B                 1782 	dec	hl
   07EB 2A                 1783 	ld	a, (hl+)
   07EC 66                 1784 	ld	h, (hl)
   07ED 6F                 1785 	ld	l, a
   07EE 71                 1786 	ld	(hl), c
   07EF 23                 1787 	inc	hl
   07F0 70                 1788 	ld	(hl), b
                           1789 ;SpriteArrow.c:263: break;
   07F1 C3r08r09           1790 	jp	00109$
                           1791 ;SpriteArrow.c:264: case 15u: //da SU a DX
   07F4                    1792 00106$:
                           1793 ;SpriteArrow.c:265: SPRITE_UNSET_VMIRROR(THIS);
   07F4 0A                 1794 	ld	a, (bc)
   07F5 CB AF              1795 	res	5, a
   07F7 02                 1796 	ld	(bc), a
                           1797 ;SpriteArrow.c:266: data->arrowdir = 1;
   07F8 F8 03              1798 	ldhl	sp,	#3
   07FA 2A                 1799 	ld	a, (hl+)
   07FB 66                 1800 	ld	h, (hl)
   07FC 6F                 1801 	ld	l, a
   07FD 36 01              1802 	ld	(hl), #0x01
                           1803 ;SpriteArrow.c:239: struct ArrowInfo* data = (struct ArrowInfo*)THIS->custom_data;
   07FF 21r01r00           1804 	ld	hl, #_THIS + 1
   0802 2B                 1805 	dec	hl
   0803 4E                 1806 	ld	c, (hl)
   0804 23                 1807 	inc	hl
   0805 46                 1808 	ld	b, (hl)
                           1809 ;SpriteArrow.c:243: THIS->x += 4;
   0806 21 08 00           1810 	ld	hl, #0x0008
   0809 09                 1811 	add	hl, bc
   080A 7D                 1812 	ld	a, l
   080B 54                 1813 	ld	d, h
   080C F8 03              1814 	ldhl	sp,	#3
   080E 22                 1815 	ld	(hl+), a
   080F 72                 1816 	ld	(hl), d
                           1817 ;SpriteArrow.c:267: THIS->x += 4;
   0810 2B                 1818 	dec	hl
   0811 5E                 1819 	ld	e, (hl)
   0812 23                 1820 	inc	hl
   0813 56                 1821 	ld	d, (hl)
   0814 1A                 1822 	ld	a,(de)
   0815 4F                 1823 	ld	c, a
   0816 13                 1824 	inc	de
   0817 1A                 1825 	ld	a,(de)
   0818 47                 1826 	ld	b, a
   0819 03                 1827 	inc	bc
   081A 03                 1828 	inc	bc
   081B 03                 1829 	inc	bc
   081C 03                 1830 	inc	bc
   081D 2B                 1831 	dec	hl
   081E 2A                 1832 	ld	a, (hl+)
   081F 66                 1833 	ld	h, (hl)
   0820 6F                 1834 	ld	l, a
   0821 71                 1835 	ld	(hl), c
   0822 23                 1836 	inc	hl
   0823 70                 1837 	ld	(hl), b
                           1838 ;SpriteArrow.c:239: struct ArrowInfo* data = (struct ArrowInfo*)THIS->custom_data;
   0824 21r01r00           1839 	ld	hl, #_THIS + 1
   0827 2B                 1840 	dec	hl
   0828 4E                 1841 	ld	c, (hl)
   0829 23                 1842 	inc	hl
   082A 46                 1843 	ld	b, (hl)
                           1844 ;SpriteArrow.c:244: THIS->y += 4;
   082B 21 0A 00           1845 	ld	hl, #0x000a
   082E 09                 1846 	add	hl, bc
   082F 7D                 1847 	ld	a, l
   0830 54                 1848 	ld	d, h
   0831 F8 03              1849 	ldhl	sp,	#3
   0833 22                 1850 	ld	(hl+), a
   0834 72                 1851 	ld	(hl), d
                           1852 ;SpriteArrow.c:268: THIS->y += 6;
   0835 2B                 1853 	dec	hl
   0836 5E                 1854 	ld	e, (hl)
   0837 23                 1855 	inc	hl
   0838 56                 1856 	ld	d, (hl)
   0839 1A                 1857 	ld	a,(de)
   083A 47                 1858 	ld	b, a
   083B 13                 1859 	inc	de
   083C 1A                 1860 	ld	a,(de)
   083D 4F                 1861 	ld	c, a
   083E 78                 1862 	ld	a, b
   083F C6 06              1863 	add	a, #0x06
   0841 47                 1864 	ld	b, a
   0842 30 01              1865 	jr	NC,00123$
   0844 0C                 1866 	inc	c
   0845                    1867 00123$:
   0845 2B                 1868 	dec	hl
   0846 2A                 1869 	ld	a, (hl+)
   0847 66                 1870 	ld	h, (hl)
   0848 6F                 1871 	ld	l, a
   0849 70                 1872 	ld	(hl), b
   084A 23                 1873 	inc	hl
   084B 71                 1874 	ld	(hl), c
                           1875 ;SpriteArrow.c:269: break;
   084C C3r08r09           1876 	jp	00109$
                           1877 ;SpriteArrow.c:270: case 16u://da GIU a DX
   084F                    1878 00107$:
                           1879 ;SpriteArrow.c:271: SPRITE_UNSET_VMIRROR(THIS);
   084F 0A                 1880 	ld	a, (bc)
   0850 CB AF              1881 	res	5, a
   0852 02                 1882 	ld	(bc), a
                           1883 ;SpriteArrow.c:272: data->arrowdir = 1;
   0853 F8 03              1884 	ldhl	sp,	#3
   0855 2A                 1885 	ld	a, (hl+)
   0856 66                 1886 	ld	h, (hl)
   0857 6F                 1887 	ld	l, a
   0858 36 01              1888 	ld	(hl), #0x01
                           1889 ;SpriteArrow.c:239: struct ArrowInfo* data = (struct ArrowInfo*)THIS->custom_data;
   085A 21r01r00           1890 	ld	hl, #_THIS + 1
   085D 2B                 1891 	dec	hl
   085E 4E                 1892 	ld	c, (hl)
   085F 23                 1893 	inc	hl
   0860 46                 1894 	ld	b, (hl)
                           1895 ;SpriteArrow.c:243: THIS->x += 4;
   0861 21 08 00           1896 	ld	hl, #0x0008
   0864 09                 1897 	add	hl, bc
   0865 7D                 1898 	ld	a, l
   0866 54                 1899 	ld	d, h
   0867 F8 03              1900 	ldhl	sp,	#3
   0869 22                 1901 	ld	(hl+), a
   086A 72                 1902 	ld	(hl), d
                           1903 ;SpriteArrow.c:273: THIS->x += 4;
   086B 2B                 1904 	dec	hl
   086C 5E                 1905 	ld	e, (hl)
   086D 23                 1906 	inc	hl
   086E 56                 1907 	ld	d, (hl)
   086F 1A                 1908 	ld	a,(de)
   0870 4F                 1909 	ld	c, a
   0871 13                 1910 	inc	de
   0872 1A                 1911 	ld	a,(de)
   0873 47                 1912 	ld	b, a
   0874 03                 1913 	inc	bc
   0875 03                 1914 	inc	bc
   0876 03                 1915 	inc	bc
   0877 03                 1916 	inc	bc
   0878 2B                 1917 	dec	hl
   0879 2A                 1918 	ld	a, (hl+)
   087A 66                 1919 	ld	h, (hl)
   087B 6F                 1920 	ld	l, a
   087C 71                 1921 	ld	(hl), c
   087D 23                 1922 	inc	hl
   087E 70                 1923 	ld	(hl), b
                           1924 ;SpriteArrow.c:239: struct ArrowInfo* data = (struct ArrowInfo*)THIS->custom_data;
   087F 21r01r00           1925 	ld	hl, #_THIS + 1
   0882 2B                 1926 	dec	hl
   0883 4E                 1927 	ld	c, (hl)
   0884 23                 1928 	inc	hl
   0885 46                 1929 	ld	b, (hl)
                           1930 ;SpriteArrow.c:244: THIS->y += 4;
   0886 21 0A 00           1931 	ld	hl, #0x000a
   0889 09                 1932 	add	hl, bc
   088A 7D                 1933 	ld	a, l
   088B 54                 1934 	ld	d, h
   088C F8 03              1935 	ldhl	sp,	#3
   088E 22                 1936 	ld	(hl+), a
   088F 72                 1937 	ld	(hl), d
                           1938 ;SpriteArrow.c:274: THIS->y -= 4;
   0890 2B                 1939 	dec	hl
   0891 5E                 1940 	ld	e, (hl)
   0892 23                 1941 	inc	hl
   0893 56                 1942 	ld	d, (hl)
   0894 1A                 1943 	ld	a,(de)
   0895 4F                 1944 	ld	c, a
   0896 13                 1945 	inc	de
   0897 1A                 1946 	ld	a,(de)
   0898 47                 1947 	ld	b, a
   0899 79                 1948 	ld	a, c
   089A C6 FC              1949 	add	a, #0xfc
   089C 4F                 1950 	ld	c, a
   089D 78                 1951 	ld	a, b
   089E CE FF              1952 	adc	a, #0xff
   08A0 47                 1953 	ld	b, a
   08A1 2B                 1954 	dec	hl
   08A2 2A                 1955 	ld	a, (hl+)
   08A3 66                 1956 	ld	h, (hl)
   08A4 6F                 1957 	ld	l, a
   08A5 71                 1958 	ld	(hl), c
   08A6 23                 1959 	inc	hl
   08A7 70                 1960 	ld	(hl), b
                           1961 ;SpriteArrow.c:275: break;
   08A8 C3r08r09           1962 	jp	00109$
                           1963 ;SpriteArrow.c:276: case 17u: //da GIU a SX
   08AB                    1964 00108$:
                           1965 ;SpriteArrow.c:277: SPRITE_SET_VMIRROR(THIS);
   08AB 0A                 1966 	ld	a, (bc)
   08AC CB EF              1967 	set	5, a
   08AE 02                 1968 	ld	(bc), a
                           1969 ;SpriteArrow.c:278: data->arrowdir = 1;
   08AF F8 03              1970 	ldhl	sp,	#3
   08B1 2A                 1971 	ld	a, (hl+)
   08B2 66                 1972 	ld	h, (hl)
   08B3 6F                 1973 	ld	l, a
   08B4 36 01              1974 	ld	(hl), #0x01
                           1975 ;SpriteArrow.c:239: struct ArrowInfo* data = (struct ArrowInfo*)THIS->custom_data;
   08B6 21r01r00           1976 	ld	hl, #_THIS + 1
   08B9 2B                 1977 	dec	hl
   08BA 4E                 1978 	ld	c, (hl)
   08BB 23                 1979 	inc	hl
   08BC 46                 1980 	ld	b, (hl)
                           1981 ;SpriteArrow.c:243: THIS->x += 4;
   08BD 21 08 00           1982 	ld	hl, #0x0008
   08C0 09                 1983 	add	hl, bc
   08C1 7D                 1984 	ld	a, l
   08C2 54                 1985 	ld	d, h
   08C3 F8 03              1986 	ldhl	sp,	#3
   08C5 22                 1987 	ld	(hl+), a
   08C6 72                 1988 	ld	(hl), d
                           1989 ;SpriteArrow.c:279: THIS->x -= 4;
   08C7 2B                 1990 	dec	hl
   08C8 5E                 1991 	ld	e, (hl)
   08C9 23                 1992 	inc	hl
   08CA 56                 1993 	ld	d, (hl)
   08CB 1A                 1994 	ld	a,(de)
   08CC 4F                 1995 	ld	c, a
   08CD 13                 1996 	inc	de
   08CE 1A                 1997 	ld	a,(de)
   08CF 47                 1998 	ld	b, a
   08D0 79                 1999 	ld	a, c
   08D1 C6 FC              2000 	add	a, #0xfc
   08D3 4F                 2001 	ld	c, a
   08D4 78                 2002 	ld	a, b
   08D5 CE FF              2003 	adc	a, #0xff
   08D7 47                 2004 	ld	b, a
   08D8 2B                 2005 	dec	hl
   08D9 2A                 2006 	ld	a, (hl+)
   08DA 66                 2007 	ld	h, (hl)
   08DB 6F                 2008 	ld	l, a
   08DC 71                 2009 	ld	(hl), c
   08DD 23                 2010 	inc	hl
   08DE 70                 2011 	ld	(hl), b
                           2012 ;SpriteArrow.c:239: struct ArrowInfo* data = (struct ArrowInfo*)THIS->custom_data;
   08DF 21r01r00           2013 	ld	hl, #_THIS + 1
   08E2 2B                 2014 	dec	hl
   08E3 4E                 2015 	ld	c, (hl)
   08E4 23                 2016 	inc	hl
   08E5 46                 2017 	ld	b, (hl)
                           2018 ;SpriteArrow.c:244: THIS->y += 4;
   08E6 21 0A 00           2019 	ld	hl, #0x000a
   08E9 09                 2020 	add	hl, bc
   08EA 7D                 2021 	ld	a, l
   08EB 54                 2022 	ld	d, h
   08EC F8 03              2023 	ldhl	sp,	#3
   08EE 22                 2024 	ld	(hl+), a
   08EF 72                 2025 	ld	(hl), d
                           2026 ;SpriteArrow.c:280: THIS->y -= 4;
   08F0 2B                 2027 	dec	hl
   08F1 5E                 2028 	ld	e, (hl)
   08F2 23                 2029 	inc	hl
   08F3 56                 2030 	ld	d, (hl)
   08F4 1A                 2031 	ld	a,(de)
   08F5 4F                 2032 	ld	c, a
   08F6 13                 2033 	inc	de
   08F7 1A                 2034 	ld	a,(de)
   08F8 47                 2035 	ld	b, a
   08F9 79                 2036 	ld	a, c
   08FA C6 FC              2037 	add	a, #0xfc
   08FC 4F                 2038 	ld	c, a
   08FD 78                 2039 	ld	a, b
   08FE CE FF              2040 	adc	a, #0xff
   0900 47                 2041 	ld	b, a
   0901 2B                 2042 	dec	hl
   0902 2A                 2043 	ld	a, (hl+)
   0903 66                 2044 	ld	h, (hl)
   0904 6F                 2045 	ld	l, a
   0905 71                 2046 	ld	(hl), c
   0906 23                 2047 	inc	hl
   0907 70                 2048 	ld	(hl), b
                           2049 ;SpriteArrow.c:282: }
   0908                    2050 00109$:
                           2051 ;SpriteArrow.c:283: data->type = data->original_type;
   0908 C1                 2052 	pop	bc
   0909 C5                 2053 	push	bc
   090A D1                 2054 	pop	de
   090B D5                 2055 	push	de
   090C 6B                 2056 	ld	l, e
   090D 62                 2057 	ld	h, d
   090E 7E                 2058 	ld	a, (hl)
   090F CB 37              2059 	swap	a
   0911 E6 0F              2060 	and	a, #0x0f
   0913 E6 0F              2061 	and	a, #0x0f
   0915 6F                 2062 	ld	l, a
   0916 0A                 2063 	ld	a, (bc)
   0917 E6 F0              2064 	and	a, #0xf0
   0919 B5                 2065 	or	a, l
   091A 02                 2066 	ld	(bc), a
                           2067 ;SpriteArrow.c:284: }
   091B E8 05              2068 	add	sp, #5
   091D C9                 2069 	ret
                           2070 ;SpriteArrow.c:286: void Destroy_SpriteArrow() {
                           2071 ;	---------------------------------
                           2072 ; Function Destroy_SpriteArrow
                           2073 ; ---------------------------------
   091E                    2074 _Destroy_SpriteArrow::
                           2075 ;SpriteArrow.c:287: }
   091E C9                 2076 	ret
                           2077 	.area _CODE_2
                           2078 	.area _CABS (ABS)
